(dp0
S'/category/31/shemale/'
p1
I01
sS'/category/47/strt-sex/'
p2
I01
sS'/category/13/creampie/'
p3
I01
sS'/category/6/big-butt/'
p4
I01
sS'/category/35/webcam/'
p5
I00
sS'/category/9/blowjob/'
p6
I00
sS'/category/57/pantyhose/'
p7
I00
sS'/category/44/dildos-toys/'
p8
I00
sS'/category/49/latina/'
p9
I00
sS'/category/18/fetish/'
p10
I00
sS'/category/19/funny/'
p11
I00
sS'/category/24/instructional/'
p12
I00
sS'/category/60/solo-male/'
p13
I00
sS'/category/27/solo-girl/'
p14
I00
sS'/category/42/fantasy/'
p15
I00
sS'/category/37/cumshots/'
p16
I00
sS'/category/29/milf/'
p17
I00
sS'/category/23/hentai/'
p18
I00
sS'/category/26/lesbian/'
p19
I00
sS'/category/12/couples/'
p20
I00
sS'/category/55/masturbate/'
p21
I00
sS'/category/43/rimming/'
p22
I00
sS'/category/1/amateur/'
p23
I00
sS'/category/58/german/'
p24
I00
sS'/category/62/fingering/'
p25
I00
sS'/category/51/blonde/'
p26
I00
sS'/category/30/public/'
p27
I00
sS'/category/53/redhead/'
p28
I00
sS'/category/52/brunette/'
p29
I00
sS'/category/32/teen/'
p30
I00
sS'/category/36/pov/'
p31
I00
sS'/category/46/hairy/'
p32
I00
sS'/category/11/compilation/'
p33
I00
sS'/category/5/bisexual/'
p34
I00
sS'/category/61/romantic/'
p35
I00
sS'/category/56/panties/'
p36
I00
sS'/category/39/squirting/'
p37
I00
sS'/category/28/mature/'
p38
I00
sS'/category/34/voyeur/'
p39
I00
sS'/category/63/3d/'
p40
I00
sS'/category/4/bbw/'
p41
I00
sS'/category/7/big-tits/'
p42
I00
sS'/category/20/gay/'
p43
I00
sS'/category/40/kissing/'
p44
I00
sS'/category/54/shaved/'
p45
I00
sS'/category/38/threesome/'
p46
I00
sS'/category/50/gonzo/'
p47
I00
sS'/category/2/anal/'
p48
I00
sS'/category/45/young-old/'
p49
I00
sS'/category/22/handjob/'
p50
I00
sS'/category/10/coed/'
p51
I00
sS'/category/33/vintage/'
p52
I00
sS'/category/15/cunnilingus/'
p53
I00
sS'/category/16/dp/'
p54
I00
sS'/category/41/interview/'
p55
I00
sS'/category/21/group-sex/'
p56
I00
sS'/category/3/asian/'
p57
I00
sS'/category/25/interracial/'
p58
I00
sS'/category/17/facial/'
p59
I00
sS'/category/8/ebony/'
p60
I00
sS'/category/59/swallow/'
p61
I00
sS'/category/48/european/'
p62
I00
s.