(dp0
S'/category/31/shemale/'
p1
I01
sS'/category/47/strt-sex/'
p2
I01
sS'/category/13/creampie/'
p3
I01
sS'/category/6/big-butt/'
p4
I01
sS'/category/35/webcam/'
p5
I01
sS'/category/9/blowjob/'
p6
I01
sS'/category/57/pantyhose/'
p7
I01
sS'/category/15/cunnilingus/'
p8
I01
sS'/category/44/dildos-toys/'
p9
I01
sS'/category/49/latina/'
p10
I01
sS'/category/18/fetish/'
p11
I01
sS'/category/19/funny/'
p12
I01
sS'/category/24/instructional/'
p13
I01
sS'/category/60/solo-male/'
p14
I01
sS'/category/51/blonde/'
p15
I01
sS'/category/42/fantasy/'
p16
I01
sS'/category/37/cumshots/'
p17
I01
sS'/category/29/milf/'
p18
I01
sS'/category/23/hentai/'
p19
I01
sS'/category/26/lesbian/'
p20
I01
sS'/category/12/couples/'
p21
I01
sS'/category/55/masturbate/'
p22
I01
sS'/category/43/rimming/'
p23
I01
sS'/category/1/amateur/'
p24
I01
sS'/category/58/german/'
p25
I01
sS'/category/62/fingering/'
p26
I01
sS'/category/21/group-sex/'
p27
I01
sS'/category/27/solo-girl/'
p28
I01
sS'/category/30/public/'
p29
I01
sS'/category/53/redhead/'
p30
I01
sS'/category/52/brunette/'
p31
I01
sS'/category/32/teen/'
p32
I01
sS'/category/36/pov/'
p33
I01
sS'/category/46/hairy/'
p34
I01
sS'/category/11/compilation/'
p35
I01
sS'/category/5/bisexual/'
p36
I01
sS'/category/61/romantic/'
p37
I01
sS'/category/56/panties/'
p38
I01
sS'/category/39/squirting/'
p39
I01
sS'/category/28/mature/'
p40
I01
sS'/category/34/voyeur/'
p41
I01
sS'/category/63/3d/'
p42
I01
sS'/category/4/bbw/'
p43
I01
sS'/category/7/big-tits/'
p44
I01
sS'/category/20/gay/'
p45
I01
sS'/category/40/kissing/'
p46
I01
sS'/category/54/shaved/'
p47
I01
sS'/category/38/threesome/'
p48
I01
sS'/category/50/gonzo/'
p49
I01
sS'/category/2/anal/'
p50
I01
sS'/category/10/coed/'
p51
I01
sS'/category/33/vintage/'
p52
I01
sS'/category/22/handjob/'
p53
I01
sS'/category/8/ebony/'
p54
I01
sS'/category/41/interview/'
p55
I01
sS'/category/45/young-old/'
p56
I01
sS'/category/3/asian/'
p57
I01
sS'/category/25/interracial/'
p58
I01
sS'/category/17/facial/'
p59
I01
sS'/category/16/dp/'
p60
I01
sS'/category/59/swallow/'
p61
I01
sS'/category/48/european/'
p62
I01
s.