(dp0
S'/tags/jpnhd'
p1
I01
sS'/tags/gigapussylips'
p2
I01
sS'/tags/crossdresser'
p3
I01
sS'/tags/plussize'
p4
I01
sS'/tags/thailand'
p5
I01
sS'/tags/deep'
p6
I01
sS'/tags/nalgonas'
p7
I01
sS'/tags/lollipoptwinks'
p8
I01
sS'/tags/bareassadventure'
p9
I01
sS'/tags/kitten'
p10
I01
sS'/tags/germany'
p11
I01
sS'/tags/gay-hotjocksnicecocks'
p12
I01
sS'/tags/xl'
p13
I01
sS'/tags/bacanal'
p14
I01
sS'/tags/amateursex'
p15
I01
sS'/tags/pene'
p16
I01
sS'/tags/virgem'
p17
I01
sS'/tags/shocked'
p18
I01
sS'/tags/charlotte'
p19
I01
sS'/tags/milf-humiliation'
p20
I01
sS'/tags/mofos-world-wide'
p21
I01
sS'/tags/milfhumiliation'
p22
I01
sS'/tags/sexformoney'
p23
I01
sS'/tags/gay-big-cock'
p24
I01
sS'/tags/bare'
p25
I01
sS'/tags/gay-painful'
p26
I01
sS'/tags/casera'
p27
I01
sS'/tags/playing'
p28
I01
sS'/tags/glossy'
p29
I01
sS'/tags/eutwinkin'
p30
I01
sS'/tags/shemale'
p31
I01
sS'/tags/bustygfsexposed'
p32
I01
sS'/tags/candid'
p33
I01
sS'/tags/javhd'
p34
I01
sS'/tags/spears'
p35
I01
sS'/tags/pantie'
p36
I01
sS'/tags/machine'
p37
I01
sS'/tags/gay-rimming'
p38
I01
sS'/tags/still'
p39
I01
sS'/tags/pantyhose'
p40
I01
sS'/tags/doublepentration'
p41
I01
sS'/tags/ferrari'
p42
I01
sS'/tags/casero'
p43
I01
sS'/tags/gay-collegebf'
p44
I01
sS'/tags/plump'
p45
I01
sS'/tags/dominated'
p46
I01
sS'/tags/me'
p47
I01
sS'/tags/schoolsex'
p48
I01
sS'/tags/cum-disgrace'
p49
I01
sS'/tags/rocco'
p50
I01
sS'/tags/dot'
p51
I01
sS'/tags/gay-barebackholes'
p52
I01
sS'/tags/strippers'
p53
I01
sS'/tags/1on1'
p54
I01
sS'/tags/dogging'
p55
I01
sS'/tags/dom'
p56
I01
sS'/tags/aussie'
p57
I01
sS'/tags/interfacial'
p58
I01
sS'/tags/fox'
p59
I01
sS'/tags/dominates'
p60
I01
sS'/tags/castellano'
p61
I01
sS'/tags/big-titted'
p62
I01
sS'/tags/analnippon'
p63
I01
sS'/tags/watersports'
p64
I01
sS'/tags/for'
p65
I01
sS'/tags/dog'
p66
I01
sS'/tags/thong'
p67
I01
sS'/tags/gay-gloryhole'
p68
I01
sS'/tags/glassdildo'
p69
I01
sS'/tags/get'
p70
I01
sS'/tags/nipple'
p71
I01
sS'/tags/ben'
p72
I01
sS'/tags/forbiddeneast'
p73
I01
sS'/tags/bed'
p74
I01
sS'/tags/nails'
p75
I01
sS'/tags/tyler'
p76
I01
sS'/tags/tongue'
p77
I01
sS'/tags/hand-job'
p78
I01
sS'/tags/gee'
p79
I01
sS'/tags/futanari'
p80
I01
sS'/tags/petite'
p81
I01
sS'/tags/hdkfisting'
p82
I01
sS'/tags/pawg'
p83
I01
sS'/tags/unique'
p84
I01
sS'/tags/fille'
p85
I01
sS'/tags/berrymore'
p86
I01
sS'/tags/catfight'
p87
I01
sS'/tags/balllicking'
p88
I01
sS'/tags/ejaculacao'
p89
I01
sS'/tags/alison'
p90
I01
sS'/tags/marcus'
p91
I01
sS'/tags/gay-threesome'
p92
I01
sS'/tags/china'
p93
I01
sS'/tags/posing'
p94
I01
sS'/tags/criollas'
p95
I01
sS'/tags/adultery'
p96
I01
sS'/tags/geek'
p97
I01
sS'/tags/bonita'
p98
I01
sS'/tags/deville'
p99
I01
sS'/tags/transando'
p100
I01
sS'/tags/spandex'
p101
I01
sS'/tags/pozzi'
p102
I01
sS'/tags/brazilian'
p103
I01
sS'/tags/titty-fuck'
p104
I01
sS'/tags/noiva'
p105
I01
sS'/tags/gay-latino'
p106
I01
sS'/tags/fischer'
p107
I01
sS'/tags/casalinga'
p108
I01
sS'/tags/gay-deansboy'
p109
I01
sS'/tags/pinky'
p110
I01
sS'/tags/prostitutes'
p111
I01
sS'/tags/menage'
p112
I01
sS'/tags/bigger'
p113
I01
sS'/tags/teen-bff'
p114
I01
sS'/tags/siririca'
p115
I01
sS'/tags/lemmon'
p116
I01
sS'/tags/bi-sexual'
p117
I01
sS'/tags/nyomi'
p118
I01
sS'/tags/asslicking'
p119
I01
sS'/tags/model'
p120
I01
sS'/tags/bukkake-now'
p121
I01
sS'/tags/aria'
p122
I01
sS'/tags/sparks'
p123
I01
sS'/tags/marilyn'
p124
I01
sS'/tags/come'
p125
I01
sS'/tags/balloon'
p126
I01
sS'/tags/short'
p127
I01
sS'/tags/tanaka'
p128
I01
sS'/tags/katsumi'
p129
I01
sS'/tags/huge-cock'
p130
I01
sS'/tags/mum'
p131
I01
sS'/tags/pink'
p132
I01
sS'/tags/brunnete'
p133
I01
sS'/tags/bigtitstokyo'
p134
I01
sS'/tags/addams'
p135
I01
sS'/tags/geile'
p136
I01
sS'/tags/gay-mask'
p137
I01
sS'/tags/age'
p138
I01
sS'/tags/cumface'
p139
I01
sS'/tags/sem'
p140
I01
sS'/tags/gallery'
p141
I01
sS'/tags/canada'
p142
I01
sS'/tags/grabada'
p143
I01
sS'/tags/cocksuck'
p144
I01
sS'/tags/swapping'
p145
I01
sS'/tags/hall'
p146
I01
sS'/tags/beurette'
p147
I01
sS'/tags/hiddencam'
p148
I01
sS'/tags/fart'
p149
I01
sS'/tags/teenie'
p150
I01
sS'/tags/porn'
p151
I01
sS'/tags/anallicking'
p152
I01
sS'/tags/lorena'
p153
I01
sS'/tags/fffm'
p154
I01
sS'/tags/interacial'
p155
I01
sS'/tags/seducing'
p156
I01
sS'/tags/cumdrinking'
p157
I01
sS'/tags/student'
p158
I01
sS'/tags/cums'
p159
I01
sS'/tags/gay-porno'
p160
I01
sS'/tags/seins'
p161
I01
sS'/tags/chunky'
p162
I01
sS'/tags/bruenette'
p163
I01
sS'/tags/call'
p164
I01
sS'/tags/sperms'
p165
I01
sS'/tags/cali'
p166
I01
sS'/tags/gabriela'
p167
I01
sS'/tags/gay-oil'
p168
I01
sS'/tags/emily'
p169
I01
sS'/tags/backroomsuckers'
p170
I01
sS'/tags/mixed'
p171
I01
sS'/tags/fake-tits'
p172
I01
sS'/tags/sperma'
p173
I01
sS'/tags/colegiala'
p174
I01
sS'/tags/campus'
p175
I01
sS'/tags/sperme'
p176
I01
sS'/tags/cunnilingus'
p177
I01
sS'/tags/vivian'
p178
I01
sS'/tags/bnat'
p179
I01
sS'/tags/blwojob'
p180
I01
sS'/tags/door'
p181
I01
sS'/tags/facialcum'
p182
I01
sS'/tags/fuentes'
p183
I01
sS'/tags/exam'
p184
I01
sS'/tags/sex-massage'
p185
I01
sS'/tags/mysexsense'
p186
I01
sS'/tags/chanel'
p187
I01
sS'/tags/assfuckers'
p188
I01
sS'/tags/benz'
p189
I01
sS'/tags/swiss'
p190
I01
sS'/tags/throated'
p191
I01
sS'/tags/femsub'
p192
I01
sS'/tags/gay-hogtied'
p193
I01
sS'/tags/gaysex'
p194
I01
sS'/tags/amteur'
p195
I01
sS'/tags/uniform'
p196
I01
sS'/tags/amateur'
p197
I01
sS'/tags/gothic'
p198
I01
sS'/tags/hatefuck'
p199
I01
sS'/tags/gay-muscle'
p200
I01
sS'/tags/linares'
p201
I01
sS'/tags/foreplay'
p202
I01
sS'/tags/viagra'
p203
I01
sS'/tags/bigbutts'
p204
I01
sS'/tags/horney'
p205
I01
sS'/tags/18tokyo'
p206
I01
sS'/tags/japanmatures'
p207
I01
sS'/tags/goldenshowers'
p208
I01
sS'/tags/rough'
p209
I01
sS'/tags/diva'
p210
I01
sS'/tags/amatorskie'
p211
I01
sS'/tags/krystal'
p212
I01
sS'/tags/soloboy'
p213
I01
sS'/tags/fantasy'
p214
I01
sS'/tags/florida'
p215
I01
sS'/tags/girlontop'
p216
I01
sS'/tags/argentinas'
p217
I01
sS'/tags/cumhoot'
p218
I01
sS'/tags/afro'
p219
I01
sS'/tags/prodomina'
p220
I01
sS'/tags/brooks'
p221
I01
sS'/tags/paddle'
p222
I01
sS'/tags/suckingcock'
p223
I01
sS'/tags/suspension'
p224
I01
sS'/tags/9hab'
p225
I01
sS'/tags/cockstroking'
p226
I01
sS'/tags/place'
p227
I01
sS'/tags/peluda'
p228
I01
sS'/tags/morelli'
p229
I01
sS'/tags/big-dicks'
p230
I01
sS'/tags/carol'
p231
I01
sS'/tags/jay'
p232
I01
sS'/tags/gay-bathroombait'
p233
I01
sS'/tags/monstercock'
p234
I01
sS'/tags/collegeboyphysicals'
p235
I01
sS'/tags/america'
p236
I01
sS'/tags/degrading'
p237
I01
sS'/tags/nippon'
p238
I01
sS'/tags/greek'
p239
I01
sS'/tags/dilf'
p240
I01
sS'/tags/interracial'
p241
I01
sS'/tags/green'
p242
I01
sS'/tags/tan'
p243
I01
sS'/tags/eyes'
p244
I01
sS'/tags/drake'
p245
I01
sS'/tags/violet'
p246
I01
sS'/tags/gay-spying'
p247
I01
sS'/tags/romantic'
p248
I01
sS'/tags/amiga'
p249
I01
sS'/tags/bigits'
p250
I01
sS'/tags/pissbath'
p251
I01
sS'/tags/ffm'
p252
I01
sS'/tags/dildofucking'
p253
I01
sS'/tags/byrne'
p254
I01
sS'/tags/3-way'
p255
I01
sS'/tags/fathers'
p256
I01
sS'/tags/tap'
p257
I01
sS'/tags/rico'
p258
I01
sS'/tags/lain'
p259
I01
sS'/tags/erotic'
p260
I01
sS'/tags/phatbooty'
p261
I01
sS'/tags/rich'
p262
I01
sS'/tags/face'
p263
I01
sS'/tags/solitario'
p264
I01
sS'/tags/rica'
p265
I01
sS'/tags/cumshower'
p266
I01
sS'/tags/morgana'
p267
I01
sS'/tags/queer'
p268
I01
sS'/tags/famosa'
p269
I01
sS'/tags/sexual'
p270
I01
sS'/tags/rose'
p271
I01
sS'/tags/medical'
p272
I01
sS'/tags/mulheres'
p273
I01
sS'/tags/dress'
p274
I01
sS'/tags/kristina'
p275
I01
sS'/tags/asshole'
p276
I01
sS'/tags/armchair'
p277
I01
sS'/tags/amigos'
p278
I01
sS'/tags/gay-rawnsweet'
p279
I01
sS'/tags/diaper'
p280
I01
sS'/tags/load'
p281
I01
sS'/tags/killer'
p282
I01
sS'/tags/wasteland'
p283
I01
sS'/tags/table'
p284
I01
sS'/tags/nikita'
p285
I01
sS'/tags/jansen'
p286
I01
sS'/tags/idols69'
p287
I01
sS'/tags/tara'
p288
I01
sS'/tags/strap-on'
p289
I01
sS'/tags/pussyrub'
p290
I01
sS'/tags/homemade'
p291
I01
sS'/tags/boss'
p292
I01
sS'/tags/latexgurl'
p293
I01
sS'/tags/la'
p294
I01
sS'/tags/bikini'
p295
I01
sS'/tags/muscule'
p296
I01
sS'/tags/le'
p297
I01
sS'/tags/gayamateur'
p298
I01
sS'/tags/grannie'
p299
I01
sS'/tags/bigdicks'
p300
I01
sS'/tags/isabel'
p301
I01
sS'/tags/censored'
p302
I01
sS'/tags/adictoati'
p303
I01
sS'/tags/climax'
p304
I01
sS'/tags/10'
p305
I01
sS'/tags/novinha'
p306
I01
sS'/tags/charlie'
p307
I01
sS'/tags/mastubation'
p308
I01
sS'/tags/lotion'
p309
I01
sS'/tags/18'
p310
I01
sS'/tags/19'
p311
I01
sS'/tags/skye'
p312
I01
sS'/tags/bsdm'
p313
I01
sS'/tags/tori'
p314
I01
sS'/tags/gothimout'
p315
I01
sS'/tags/wax'
p316
I01
sS'/tags/way'
p317
I01
sS'/tags/brasileirinha'
p318
I01
sS'/tags/celebridades'
p319
I01
sS'/tags/army'
p320
I01
sS'/tags/rimjob'
p321
I01
sS'/tags/caughtexgf'
p322
I01
sS'/tags/alyssa'
p323
I01
sS'/tags/booties'
p324
I01
sS'/tags/blindfold'
p325
I01
sS'/tags/cogida'
p326
I01
sS'/tags/tory'
p327
I01
sS'/tags/phone'
p328
I01
sS'/tags/blackonblack'
p329
I01
sS'/tags/andrews'
p330
I01
sS'/tags/mommy'
p331
I01
sS'/tags/cruz'
p332
I01
sS'/tags/hdkfisters'
p333
I01
sS'/tags/vivi'
p334
I01
sS'/tags/gushing'
p335
I01
sS'/tags/hotchat'
p336
I01
sS'/tags/white-girl'
p337
I01
sS'/tags/luanda'
p338
I01
sS'/tags/vivo'
p339
I01
sS'/tags/deliciosa'
p340
I01
sS'/tags/sexxxy'
p341
I01
sS'/tags/teenager'
p342
I01
sS'/tags/carolyn'
p343
I01
sS'/tags/oscar'
p344
I01
sS'/tags/gay-latin'
p345
I01
sS'/tags/patrick'
p346
I01
sS'/tags/mi'
p347
I01
sS'/tags/marie'
p348
I01
sS'/tags/white'
p349
I01
sS'/tags/kamasutra'
p350
I01
sS'/tags/maria'
p351
I01
sS'/tags/homegrownfreaks'
p352
I01
sS'/tags/aires'
p353
I01
sS'/tags/girlnextdoor'
p354
I01
sS'/tags/blowjo'
p355
I01
sS'/tags/priya'
p356
I01
sS'/tags/grinding'
p357
I01
sS'/tags/shorthair'
p358
I01
sS'/tags/bigcocks'
p359
I01
sS'/tags/gay-bareadventures'
p360
I01
sS'/tags/family'
p361
I01
sS'/tags/ashley'
p362
I01
sS'/tags/tribadism'
p363
I01
sS'/tags/cartoon'
p364
I01
sS'/tags/dotado'
p365
I01
sS'/tags/russian'
p366
I01
sS'/tags/ridding'
p367
I01
sS'/tags/gokkun'
p368
I01
sS'/tags/puke'
p369
I01
sS'/tags/groped'
p370
I01
sS'/tags/clamps'
p371
I01
sS'/tags/amsterdam'
p372
I01
sS'/tags/outside'
p373
I01
sS'/tags/miranda'
p374
I01
sS'/tags/chains'
p375
I01
sS'/tags/vintage'
p376
I01
sS'/tags/panteras'
p377
I01
sS'/tags/mr'
p378
I01
sS'/tags/lick'
p379
I01
sS'/tags/gay-facial'
p380
I01
sS'/tags/gaybulldog'
p381
I01
sS'/tags/beautiful-body'
p382
I01
sS'/tags/magazine'
p383
I01
sS'/tags/gigantic'
p384
I01
sS'/tags/doujin'
p385
I01
sS'/tags/swallowing'
p386
I01
sS'/tags/bukkakke'
p387
I01
sS'/tags/juicy'
p388
I01
sS'/tags/rub'
p389
I01
sS'/tags/xvideos'
p390
I01
sS'/tags/punheta'
p391
I01
sS'/tags/cinthia'
p392
I01
sS'/tags/beads'
p393
I01
sS'/tags/nanny'
p394
I01
sS'/tags/wrestling'
p395
I01
sS'/tags/garden'
p396
I01
sS'/tags/humor'
p397
I01
sS'/tags/vicky'
p398
I01
sS'/tags/my'
p399
I01
sS'/tags/gemma'
p400
I01
sS'/tags/trany'
p401
I01
sS'/tags/guydestroyed'
p402
I01
sS'/tags/fantasies'
p403
I01
sS'/tags/juice'
p404
I01
sS'/tags/gay-hardocre'
p405
I01
sS'/tags/sexually'
p406
I01
sS'/tags/threesomefuck'
p407
I01
sS'/tags/gay-handjob'
p408
I01
sS'/tags/incest'
p409
I01
sS'/tags/fetiche'
p410
I01
sS'/tags/girl-girl'
p411
I01
sS'/tags/in-clothes'
p412
I01
sS'/tags/amateuer'
p413
I01
sS'/tags/cigarettes'
p414
I01
sS'/tags/mary'
p415
I01
sS'/tags/eatingpussy'
p416
I01
sS'/tags/analcreampie'
p417
I01
sS'/tags/nerdy'
p418
I01
sS'/tags/wicked'
p419
I01
sS'/tags/culona'
p420
I01
sS'/tags/exposed'
p421
I01
sS'/tags/gotexbf'
p422
I01
sS'/tags/babe'
p423
I01
sS'/tags/camprime'
p424
I01
sS'/tags/sexvideo'
p425
I01
sS'/tags/exbf'
p426
I01
sS'/tags/gay-creep'
p427
I01
sS'/tags/titts'
p428
I01
sS'/tags/bestcamvids'
p429
I01
sS'/tags/gay-getrawbreed'
p430
I01
sS'/tags/analcum'
p431
I01
sS'/tags/titty'
p432
I01
sS'/tags/gay-gotbuttered'
p433
I01
sS'/tags/amatrices'
p434
I01
sS'/tags/tittyfucking'
p435
I01
sS'/tags/liveshow'
p436
I01
sS'/tags/sssh'
p437
I01
sS'/tags/grey-eyes'
p438
I01
sS'/tags/highdefintion'
p439
I01
sS'/tags/gay-daddyraunch'
p440
I01
sS'/tags/bisexuals'
p441
I01
sS'/tags/tanga'
p442
I01
sS'/tags/phoenix'
p443
I01
sS'/tags/saggytits'
p444
I01
sS'/tags/gay-pornstar'
p445
I01
sS'/tags/zebragirls'
p446
I01
sS'/tags/daughter'
p447
I01
sS'/tags/highdef'
p448
I01
sS'/tags/snatch'
p449
I01
sS'/tags/gaygroup'
p450
I01
sS'/tags/double'
p451
I01
sS'/tags/gay-collegeboyphysicals'
p452
I01
sS'/tags/gay-studs'
p453
I01
sS'/tags/analbolics'
p454
I01
sS'/tags/nympho'
p455
I01
sS'/tags/quality'
p456
I01
sS'/tags/movies'
p457
I01
sS'/tags/regininha'
p458
I01
sS'/tags/farts'
p459
I01
sS'/tags/cumshot'
p460
I01
sS'/tags/highdefinition'
p461
I01
sS'/tags/hj'
p462
I01
sS'/tags/amwf'
p463
I01
sS'/tags/wild'
p464
I01
sS'/tags/flexible'
p465
I01
sS'/tags/holdingher'
p466
I01
sS'/tags/are'
p467
I01
sS'/tags/amadora'
p468
I01
sS'/tags/deep-throat'
p469
I01
sS'/tags/m2m'
p470
I01
sS'/tags/head'
p471
I01
sS'/tags/sorority'
p472
I01
sS'/tags/exibindo'
p473
I01
sS'/tags/dominance'
p474
I01
sS'/tags/precoce'
p475
I01
sS'/tags/date'
p476
I01
sS'/tags/ferraz'
p477
I01
sS'/tags/cottage'
p478
I01
sS'/tags/gayblackporn'
p479
I01
sS'/tags/hannah'
p480
I01
sS'/tags/stroke'
p481
I01
sS'/tags/birthday'
p482
I01
sS'/tags/kam'
p483
I01
sS'/tags/fishnet'
p484
I01
sS'/tags/bigblackcock'
p485
I01
sS'/tags/blackcock'
p486
I01
sS'/tags/seen'
p487
I01
sS'/tags/nurses'
p488
I01
sS'/tags/slipping'
p489
I01
sS'/tags/mastrubate'
p490
I01
sS'/tags/ballsucking'
p491
I01
sS'/tags/cutey'
p492
I01
sS'/tags/banxxx'
p493
I01
sS'/tags/brunete'
p494
I01
sS'/tags/ungloryhole'
p495
I01
sS'/tags/lezbian'
p496
I01
sS'/tags/peeping'
p497
I01
sS'/tags/miko'
p498
I01
sS'/tags/whipped'
p499
I01
sS'/tags/gay-outinpublic'
p500
I01
sS'/tags/marcelli'
p501
I01
sS'/tags/daddy'
p502
I01
sS'/tags/barefoot'
p503
I01
sS'/tags/blondes'
p504
I01
sS'/tags/creamed'
p505
I01
sS'/tags/loonytoons'
p506
I01
sS'/tags/ultra'
p507
I01
sS'/tags/gianna'
p508
I01
sS'/tags/chupeta'
p509
I01
sS'/tags/gay-boss'
p510
I01
sS'/tags/casais'
p511
I01
sS'/tags/ultry'
p512
I01
sS'/tags/oldandyoung'
p513
I01
sS'/tags/gay-emo'
p514
I01
sS'/tags/fingerfucking'
p515
I01
sS'/tags/realfrenchgf'
p516
I01
sS'/tags/brasileirinhas'
p517
I01
sS'/tags/experienced'
p518
I01
sS'/tags/gay-hammerbf'
p519
I01
sS'/tags/groupsex'
p520
I01
sS'/tags/night'
p521
I01
sS'/tags/resolution'
p522
I01
sS'/tags/jailbait'
p523
I01
sS'/tags/penny'
p524
I01
sS'/tags/metendo'
p525
I01
sS'/tags/myfriendshotmom'
p526
I01
sS'/tags/hardsex'
p527
I01
sS'/tags/gay-strip'
p528
I01
sS'/tags/fistfucking'
p529
I01
sS'/tags/pussyhair'
p530
I01
sS'/tags/rope'
p531
I01
sS'/tags/bear'
p532
I01
sS'/tags/photosets'
p533
I01
sS'/tags/livejasmin'
p534
I01
sS'/tags/vacation'
p535
I01
sS'/tags/youngold'
p536
I01
sS'/tags/hairy'
p537
I01
sS'/tags/penis1up'
p538
I01
sS'/tags/austin'
p539
I01
sS'/tags/steel'
p540
I01
sS'/tags/out'
p541
I01
sS'/tags/homemovies'
p542
I01
sS'/tags/fast'
p543
I01
sS'/tags/hardcore-partying'
p544
I01
sS'/tags/balloons'
p545
I01
sS'/tags/bing'
p546
I01
sS'/tags/paddling'
p547
I01
sS'/tags/gay-butterloads'
p548
I01
sS'/tags/grass'
p549
I01
sS'/tags/moore'
p550
I01
sS'/tags/posh'
p551
I01
sS'/tags/gay-guydestroyed'
p552
I01
sS'/tags/rabo'
p553
I01
sS'/tags/gay-straight'
p554
I01
sS'/tags/fat'
p555
I01
sS'/tags/peruana'
p556
I01
sS'/tags/piernuda'
p557
I01
sS'/tags/reverse'
p558
I01
sS'/tags/uncle'
p559
I01
sS'/tags/oriental'
p560
I01
sS'/tags/crack'
p561
I01
sS'/tags/gay-anus'
p562
I01
sS'/tags/long-hair'
p563
I01
sS'/tags/lezdom'
p564
I01
sS'/tags/smalltit'
p565
I01
sS'/tags/piss'
p566
I01
sS'/tags/homegrownflixcom'
p567
I01
sS'/tags/big-tits'
p568
I01
sS'/tags/fingerfuck'
p569
I01
sS'/tags/culo'
p570
I01
sS'/tags/massage-bait'
p571
I01
sS'/tags/mmf'
p572
I01
sS'/tags/about'
p573
I01
sS'/tags/cibersexo'
p574
I01
sS'/tags/slap'
p575
I01
sS'/tags/longhair'
p576
I01
sS'/tags/georgia'
p577
I01
sS'/tags/cash'
p578
I01
sS'/tags/tamiry'
p579
I01
sS'/tags/homosexuals'
p580
I01
sS'/tags/easternbf'
p581
I01
sS'/tags/boots'
p582
I01
sS'/tags/doggie'
p583
I01
sS'/tags/euro'
p584
I01
sS'/tags/little'
p585
I01
sS'/tags/mms'
p586
I01
sS'/tags/tattoo'
p587
I01
sS'/tags/alexia'
p588
I01
sS'/tags/blackwoman'
p589
I01
sS'/tags/teen'
p590
I01
sS'/tags/crying'
p591
I01
sS'/tags/gay-gotrub'
p592
I01
sS'/tags/gay-hdkfisting'
p593
I01
sS'/tags/lesdom'
p594
I01
sS'/tags/billiards'
p595
I01
sS'/tags/pvc'
p596
I01
sS'/tags/thammy'
p597
I01
sS'/tags/asiangirl'
p598
I01
sS'/tags/comic'
p599
I01
sS'/tags/kaylani'
p600
I01
sS'/tags/assplay'
p601
I01
sS'/tags/lovely'
p602
I01
sS'/tags/pussyassfisting'
p603
I01
sS'/tags/fetisch'
p604
I01
sS'/tags/team'
p605
I01
sS'/tags/doggstyle'
p606
I01
sS'/tags/hat'
p607
I01
sS'/tags/pusslicking'
p608
I01
sS'/tags/clothed'
p609
I01
sS'/tags/upskirt'
p610
I01
sS'/tags/gay-creeps'
p611
I01
sS'/tags/then'
p612
I01
sS'/tags/many'
p613
I01
sS'/tags/vegetable'
p614
I01
sS'/tags/gay-dildo'
p615
I01
sS'/tags/piojosas'
p616
I01
sS'/tags/cheerleader'
p617
I01
sS'/tags/bianca'
p618
I01
sS'/tags/gay-fist'
p619
I01
sS'/tags/piercings'
p620
I01
sS'/tags/boat'
p621
I01
sS'/tags/clothes'
p622
I01
sS'/tags/initiation'
p623
I01
sS'/tags/italliana'
p624
I01
sS'/tags/gonna'
p625
I01
sS'/tags/hitchhiker'
p626
I01
sS'/tags/spanish'
p627
I01
sS'/tags/lust'
p628
I01
sS'/tags/gay-violate'
p629
I01
sS'/tags/oil'
p630
I01
sS'/tags/dare'
p631
I01
sS'/tags/brunette'
p632
I01
sS'/tags/dara'
p633
I01
sS'/tags/culotes'
p634
I01
sS'/tags/dark'
p635
I01
sS'/tags/haven'
p636
I01
sS'/tags/interracialgay'
p637
I01
sS'/tags/angry'
p638
I01
sS'/tags/theyxxx'
p639
I01
sS'/tags/forcedsex'
p640
I01
sS'/tags/chubby'
p641
I01
sS'/tags/02'
p642
I01
sS'/tags/01'
p643
I01
sS'/tags/open'
p644
I01
sS'/tags/ryan'
p645
I01
sS'/tags/sugar'
p646
I01
sS'/tags/facebookam'
p647
I01
sS'/tags/alexa'
p648
I01
sS'/tags/gaygangsta'
p649
I01
sS'/tags/bridgette'
p650
I01
sS'/tags/yo'
p651
I01
sS'/tags/nua'
p652
I01
sS'/tags/gay-selfshot'
p653
I01
sS'/tags/lap'
p654
I01
sS'/tags/housewife'
p655
I01
sS'/tags/bigareolas'
p656
I01
sS'/tags/gay-urbanbrits'
p657
I01
sS'/tags/rip'
p658
I01
sS'/tags/duvalle'
p659
I01
sS'/tags/dutch'
p660
I01
sS'/tags/gay-likeemstraight'
p661
I01
sS'/tags/captura'
p662
I01
sS'/tags/lover'
p663
I01
sS'/tags/capture'
p664
I01
sS'/tags/titsjob'
p665
I01
sS'/tags/disco'
p666
I01
sS'/tags/bang'
p667
I01
sS'/tags/library'
p668
I01
sS'/tags/haley'
p669
I01
sS'/tags/be'
p670
I01
sS'/tags/jobs'
p671
I01
sS'/tags/azeri'
p672
I01
sS'/tags/sparxxx'
p673
I01
sS'/tags/analfuck'
p674
I01
sS'/tags/caught'
p675
I01
sS'/tags/mamadas'
p676
I01
sS'/tags/peituda'
p677
I01
sS'/tags/chatroulette'
p678
I01
sS'/tags/another'
p679
I01
sS'/tags/couple'
p680
I01
sS'/tags/holiday'
p681
I01
sS'/tags/gay-ebony'
p682
I01
sS'/tags/pornosotros'
p683
I01
sS'/tags/gay-exbf'
p684
I01
sS'/tags/pendejas'
p685
I01
sS'/tags/cosplay'
p686
I01
sS'/tags/europe'
p687
I01
sS'/tags/holes'
p688
I01
sS'/tags/gay-studiojalif'
p689
I01
sS'/tags/public-sex-japan'
p690
I01
sS'/tags/extra'
p691
I01
sS'/tags/amatuer'
p692
I01
sS'/tags/doctors'
p693
I01
sS'/tags/degradation'
p694
I01
sS'/tags/legs'
p695
I01
sS'/tags/hotty'
p696
I01
sS'/tags/invasion'
p697
I01
sS'/tags/bigblackdicks'
p698
I01
sS'/tags/celular'
p699
I01
sS'/tags/cunilingus'
p700
I01
sS'/tags/sensual'
p701
I01
sS'/tags/sadism'
p702
I01
sS'/tags/whipping'
p703
I01
sS'/tags/bryce'
p704
I01
sS'/tags/lezzies'
p705
I01
sS'/tags/cama'
p706
I01
sS'/tags/of'
p707
I01
sS'/tags/una'
p708
I01
sS'/tags/exposedemos'
p709
I01
sS'/tags/cim'
p710
I01
sS'/tags/fag'
p711
I01
sS'/tags/rubdown'
p712
I01
sS'/tags/on'
p713
I01
sS'/tags/teenies'
p714
I01
sS'/tags/ol'
p715
I01
sS'/tags/brazillians'
p716
I01
sS'/tags/doggystyle'
p717
I01
sS'/tags/sampson'
p718
I01
sS'/tags/broke'
p719
I01
sS'/tags/sexo'
p720
I01
sS'/tags/or'
p721
I01
sS'/tags/darling'
p722
I01
sS'/tags/bulldogpit'
p723
I01
sS'/tags/sexe'
p724
I01
sS'/tags/boned'
p725
I01
sS'/tags/maduras'
p726
I01
sS'/tags/humaliliation'
p727
I01
sS'/tags/asa'
p728
I01
sS'/tags/bgg'
p729
I01
sS'/tags/superb'
p730
I01
sS'/tags/american'
p731
I01
sS'/tags/from'
p732
I01
sS'/tags/bimale'
p733
I01
sS'/tags/after'
p734
I01
sS'/tags/gay-boyfriend'
p735
I01
sS'/tags/couples'
p736
I01
sS'/tags/pussyeaten'
p737
I01
sS'/tags/ass'
p738
I01
sS'/tags/cum-tits'
p739
I01
sS'/tags/masked'
p740
I01
sS'/tags/asiasex'
p741
I01
sS'/tags/alljapanesepass'
p742
I01
sS'/tags/bigblackcocks'
p743
I01
sS'/tags/dildo'
p744
I01
sS'/tags/interview'
p745
I01
sS'/tags/canadian'
p746
I01
sS'/tags/fellatio'
p747
I01
sS'/tags/sasha'
p748
I01
sS'/tags/grind'
p749
I01
sS'/tags/boyextra'
p750
I01
sS'/tags/cheerleaders'
p751
I01
sS'/tags/houseparty'
p752
I01
sS'/tags/stevens'
p753
I01
sS'/tags/sunrise'
p754
I01
sS'/tags/officefuck'
p755
I01
sS'/tags/gay-emos'
p756
I01
sS'/tags/turkish'
p757
I01
sS'/tags/toons'
p758
I01
sS'/tags/gay-penis-sucking'
p759
I01
sS'/tags/gay-hdkfisters'
p760
I01
sS'/tags/bbc'
p761
I01
sS'/tags/diamond'
p762
I01
sS'/tags/perrito'
p763
I01
sS'/tags/zen'
p764
I01
sS'/tags/swimmingpool'
p765
I01
sS'/tags/slavegirl'
p766
I01
sS'/tags/lickingpussy'
p767
I01
sS'/tags/para'
p768
I01
sS'/tags/evelina'
p769
I01
sS'/tags/cytherea'
p770
I01
sS'/tags/on-camera'
p771
I01
sS'/tags/amat'
p772
I01
sS'/tags/park'
p773
I01
sS'/tags/pareja'
p774
I01
sS'/tags/borden'
p775
I01
sS'/tags/truthordare'
p776
I01
sS'/tags/masochism'
p777
I01
sS'/tags/bbbw'
p778
I01
sS'/tags/audition'
p779
I01
sS'/tags/gay-blakemason'
p780
I01
sS'/tags/bendover'
p781
I01
sS'/tags/thug-hunter'
p782
I01
sS'/tags/chupada'
p783
I01
sS'/tags/gay-cocksausage'
p784
I01
sS'/tags/arabian'
p785
I01
sS'/tags/celebrites'
p786
I01
sS'/tags/cumbang'
p787
I01
sS'/tags/lolo'
p788
I01
sS'/tags/culote'
p789
I01
sS'/tags/cheats'
p790
I01
sS'/tags/naturaltits'
p791
I01
sS'/tags/bus'
p792
I01
sS'/tags/lola'
p793
I01
sS'/tags/pierre'
p794
I01
sS'/tags/but'
p795
I01
sS'/tags/belladonna'
p796
I01
sS'/tags/bum'
p797
I01
sS'/tags/bicurious'
p798
I01
sS'/tags/gretchen'
p799
I01
sS'/tags/cockriding'
p800
I01
sS'/tags/cumshot-on-ass'
p801
I01
sS'/tags/tentacles'
p802
I01
sS'/tags/jeanna'
p803
I01
sS'/tags/housewives'
p804
I01
sS'/tags/asses'
p805
I01
sS'/tags/monsterdick'
p806
I01
sS'/tags/granny'
p807
I01
sS'/tags/boysxtra'
p808
I01
sS'/tags/pizza'
p809
I01
sS'/tags/hart'
p810
I01
sS'/tags/chatting'
p811
I01
sS'/tags/race'
p812
I01
sS'/tags/daddyraunch'
p813
I01
sS'/tags/stockings'
p814
I01
sS'/tags/teachers'
p815
I01
sS'/tags/living'
p816
I01
sS'/tags/sky'
p817
I01
sS'/tags/pegando'
p818
I01
sS'/tags/jones'
p819
I01
sS'/tags/jasmin'
p820
I01
sS'/tags/adultbaby'
p821
I01
sS'/tags/tranny'
p822
I01
sS'/tags/pipe'
p823
I01
sS'/tags/facial'
p824
I01
sS'/tags/fatty'
p825
I01
sS'/tags/giving'
p826
I01
sS'/tags/destroyd'
p827
I01
sS'/tags/colombiana'
p828
I01
sS'/tags/cocksausage'
p829
I01
sS'/tags/straightwankers'
p830
I01
sS'/tags/asiatica'
p831
I01
sS'/tags/milking'
p832
I01
sS'/tags/brazil'
p833
I01
sS'/tags/cane'
p834
I01
sS'/tags/jolie'
p835
I01
sS'/tags/novinhas'
p836
I01
sS'/tags/trailer'
p837
I01
sS'/tags/frat'
p838
I01
sS'/tags/jacking'
p839
I01
sS'/tags/lords'
p840
I01
sS'/tags/gay-uncut'
p841
I01
sS'/tags/latinboy'
p842
I01
sS'/tags/baile'
p843
I01
sS'/tags/curly'
p844
I01
sS'/tags/spermshower'
p845
I01
sS'/tags/hazehim'
p846
I01
sS'/tags/exploited'
p847
I01
sS'/tags/slut'
p848
I01
sS'/tags/african'
p849
I01
sS'/tags/pic'
p850
I01
sS'/tags/chupa'
p851
I01
sS'/tags/ladyboy'
p852
I01
sS'/tags/forced'
p853
I01
sS'/tags/pie'
p854
I01
sS'/tags/bigboob'
p855
I01
sS'/tags/cumonass'
p856
I01
sS'/tags/jennings'
p857
I01
sS'/tags/hope'
p858
I01
sS'/tags/homosexual'
p859
I01
sS'/tags/braga'
p860
I01
sS'/tags/dungeon'
p861
I01
sS'/tags/cumslut'
p862
I01
sS'/tags/trampling'
p863
I01
sS'/tags/corps'
p864
I01
sS'/tags/black-cock'
p865
I01
sS'/tags/athlete'
p866
I01
sS'/tags/gayviolator'
p867
I01
sS'/tags/hugecock'
p868
I01
sS'/tags/exhib'
p869
I01
sS'/tags/vaginal'
p870
I01
sS'/tags/time'
p871
I01
sS'/tags/mostrandogostosa'
p872
I01
sS'/tags/karina'
p873
I01
sS'/tags/sextour'
p874
I01
sS'/tags/by'
p875
I01
sS'/tags/hazing'
p876
I01
sS'/tags/blackgirls'
p877
I01
sS'/tags/sleeping'
p878
I01
sS'/tags/vieira'
p879
I01
sS'/tags/bigtitsatwork'
p880
I01
sS'/tags/michaels'
p881
I01
sS'/tags/cook'
p882
I01
sS'/tags/you'
p883
I01
sS'/tags/treesome'
p884
I01
sS'/tags/some'
p885
I01
sS'/tags/fuckedup'
p886
I01
sS'/tags/people'
p887
I01
sS'/tags/elizabeth'
p888
I01
sS'/tags/ebonyexposed'
p889
I01
sS'/tags/gay-outdoor'
p890
I01
sS'/tags/into'
p891
I01
sS'/tags/charmane'
p892
I01
sS'/tags/isabella'
p893
I01
sS'/tags/jschoolgirls'
p894
I01
sS'/tags/manila'
p895
I01
sS'/tags/bunda'
p896
I01
sS'/tags/collegebfphysical'
p897
I01
sS'/tags/natural-tits'
p898
I01
sS'/tags/emogfsexposed'
p899
I01
sS'/tags/wetpussy'
p900
I01
sS'/tags/gay-groupsex'
p901
I01
sS'/tags/ashlynn'
p902
I01
sS'/tags/bitch'
p903
I01
sS'/tags/vibrators'
p904
I01
sS'/tags/gay-britainsboys'
p905
I01
sS'/tags/gay-posing'
p906
I01
sS'/tags/bobbi'
p907
I01
sS'/tags/gay-jizzed'
p908
I01
sS'/tags/straightguys'
p909
I01
sS'/tags/nikki'
p910
I01
sS'/tags/cumeating'
p911
I01
sS'/tags/cohf'
p912
I01
sS'/tags/otk'
p913
I01
sS'/tags/taylor'
p914
I01
sS'/tags/condom'
p915
I01
sS'/tags/arabic'
p916
I01
sS'/tags/clothing'
p917
I01
sS'/tags/innocent'
p918
I01
sS'/tags/mulher'
p919
I01
sS'/tags/rub-him'
p920
I01
sS'/tags/between'
p921
I01
sS'/tags/3way'
p922
I01
sS'/tags/bukkake'
p923
I01
sS'/tags/corset'
p924
I01
sS'/tags/animal'
p925
I01
sS'/tags/cool'
p926
I01
sS'/tags/famous'
p927
I01
sS'/tags/big-butt'
p928
I01
sS'/tags/sucking'
p929
I01
sS'/tags/frats'
p930
I01
sS'/tags/female-doctor'
p931
I01
sS'/tags/hollywood'
p932
I01
sS'/tags/muniz'
p933
I01
sS'/tags/boysfeast'
p934
I01
sS'/tags/gay-boygusher'
p935
I01
sS'/tags/black'
p936
I01
sS'/tags/traci'
p937
I01
sS'/tags/professional'
p938
I01
sS'/tags/lezbo'
p939
I01
sS'/tags/titten'
p940
I01
sS'/tags/whitegirl'
p941
I01
sS'/tags/sex'
p942
I01
sS'/tags/2on1'
p943
I01
sS'/tags/cogidas'
p944
I01
sS'/tags/infocusbabes'
p945
I01
sS'/tags/facebook'
p946
I01
sS'/tags/anal-sex'
p947
I01
sS'/tags/cindy'
p948
I01
sS'/tags/hazed'
p949
I01
sS'/tags/british'
p950
I01
sS'/tags/footworship'
p951
I01
sS'/tags/beata'
p952
I01
sS'/tags/sixtynine'
p953
I01
sS'/tags/lisa'
p954
I01
sS'/tags/gay-office'
p955
I01
sS'/tags/enorme'
p956
I01
sS'/tags/gay-brokestraightboys'
p957
I01
sS'/tags/stars'
p958
I01
sS'/tags/college-rules'
p959
I01
sS'/tags/kinkygurl'
p960
I01
sS'/tags/perky'
p961
I01
sS'/tags/trannytube'
p962
I01
sS'/tags/hump'
p963
I01
sS'/tags/jack'
p964
I01
sS'/tags/yeknom'
p965
I01
sS'/tags/stripped'
p966
I01
sS'/tags/big-cock'
p967
I01
sS'/tags/gay-thughunter'
p968
I01
sS'/tags/nt'
p969
I01
sS'/tags/fuckatwork'
p970
I01
sS'/tags/claudia'
p971
I01
sS'/tags/sexcams'
p972
I01
sS'/tags/piernas'
p973
I01
sS'/tags/ypung'
p974
I01
sS'/tags/no'
p975
I01
sS'/tags/ugly'
p976
I01
sS'/tags/dunia'
p977
I01
sS'/tags/zorras'
p978
I01
sS'/tags/bbws'
p979
I01
sS'/tags/fuckmachine'
p980
I01
sS'/tags/hardore'
p981
I01
sS'/tags/gay-cumshot'
p982
I01
sS'/tags/wow'
p983
I01
sS'/tags/bigbooty'
p984
I01
sS'/tags/travestis'
p985
I01
sS'/tags/rican'
p986
I01
sS'/tags/sporty'
p987
I01
sS'/tags/gay-nicejocks'
p988
I01
sS'/tags/one'
p989
I01
sS'/tags/gay-ripped'
p990
I01
sS'/tags/rossi'
p991
I01
sS'/tags/small'
p992
I01
sS'/tags/biggirl'
p993
I01
sS'/tags/teagan'
p994
I01
sS'/tags/dorm'
p995
I01
sS'/tags/titted'
p996
I01
sS'/tags/moan'
p997
I01
sS'/tags/foda'
p998
I01
sS'/tags/nubian'
p999
I01
sS'/tags/draw'
p1000
I01
sS'/tags/gay-sweet'
p1001
I01
sS'/tags/eva'
p1002
I01
sS'/tags/babalu'
p1003
I01
sS'/tags/muff'
p1004
I01
sS'/tags/cumonmouth'
p1005
I01
sS'/tags/reid'
p1006
I01
sS'/tags/north'
p1007
I01
sS'/tags/eastern'
p1008
I01
sS'/tags/vacuum'
p1009
I01
sS'/tags/antique'
p1010
I01
sS'/tags/18yearsold'
p1011
I01
sS'/tags/passionate'
p1012
I01
sS'/tags/alien'
p1013
I01
sS'/tags/gape'
p1014
I01
sS'/tags/group-sex'
p1015
I01
sS'/tags/warm'
p1016
I01
sS'/tags/moaning'
p1017
I01
sS'/tags/maroc'
p1018
I01
sS'/tags/bras'
p1019
I01
sS'/tags/titfuck'
p1020
I01
sS'/tags/caiu'
p1021
I01
sS'/tags/boca'
p1022
I01
sS'/tags/3d'
p1023
I01
sS'/tags/under'
p1024
I01
sS'/tags/pusysfucking'
p1025
I01
sS'/tags/putinha'
p1026
I01
sS'/tags/desnuda'
p1027
I01
sS'/tags/boobs'
p1028
I01
sS'/tags/av'
p1029
I01
sS'/tags/bollywood'
p1030
I01
sS'/tags/milena'
p1031
I01
sS'/tags/pussylciking'
p1032
I01
sS'/tags/saliva'
p1033
I01
sS'/tags/bull'
p1034
I01
sS'/tags/lucy'
p1035
I01
sS'/tags/blasen'
p1036
I01
sS'/tags/spread'
p1037
I01
sS'/tags/cassandra'
p1038
I01
sS'/tags/chest'
p1039
I01
sS'/tags/fluffy'
p1040
I01
sS'/tags/abs'
p1041
I01
sS'/tags/shows'
p1042
I01
sS'/tags/working'
p1043
I01
sS'/tags/feet'
p1044
I01
sS'/tags/assfucked'
p1045
I01
sS'/tags/drilled'
p1046
I01
sS'/tags/as'
p1047
I01
sS'/tags/handcuffs'
p1048
I01
sS'/tags/assfucker'
p1049
I01
sS'/tags/mouthfuck'
p1050
I01
sS'/tags/abg'
p1051
I01
sS'/tags/buttfetish'
p1052
I01
sS'/tags/britney'
p1053
I01
sS'/tags/exhibition'
p1054
I01
sS'/tags/live'
p1055
I01
sS'/tags/gay-outincrowd'
p1056
I01
sS'/tags/snowball'
p1057
I01
sS'/tags/juelz'
p1058
I01
sS'/tags/sweden'
p1059
I01
sS'/tags/part'
p1060
I01
sS'/tags/blowjob'
p1061
I01
sS'/tags/cockring'
p1062
I01
sS'/tags/prolapse'
p1063
I01
sS'/tags/students'
p1064
I01
sS'/tags/nautica'
p1065
I01
sS'/tags/aletta'
p1066
I01
sS'/tags/beasts'
p1067
I01
sS'/tags/double-blowjob'
p1068
I01
sS'/tags/spreading'
p1069
I01
sS'/tags/ejaculation'
p1070
I01
sS'/tags/unlimited'
p1071
I01
sS'/tags/handjob'
p1072
I01
sS'/tags/facefucking'
p1073
I01
sS'/tags/jennifer'
p1074
I01
sS'/tags/culazo'
p1075
I01
sS'/tags/feature'
p1076
I01
sS'/tags/business-ladies'
p1077
I01
sS'/tags/bignatural'
p1078
I01
sS'/tags/daphne'
p1079
I01
sS'/tags/suit'
p1080
I01
sS'/tags/most'
p1081
I01
sS'/tags/filthy'
p1082
I01
sS'/tags/blackman'
p1083
I01
sS'/tags/cheat'
p1084
I01
sS'/tags/chupando'
p1085
I01
sS'/tags/garota'
p1086
I01
sS'/tags/marley'
p1087
I01
sS'/tags/teen-sex'
p1088
I01
sS'/tags/gay-suck'
p1089
I01
sS'/tags/bigboobs'
p1090
I01
sS'/tags/aubrey'
p1091
I01
sS'/tags/jock'
p1092
I01
sS'/tags/gay-backroomsuckers'
p1093
I01
sS'/tags/bisexual'
p1094
I01
sS'/tags/pussyfingering'
p1095
I01
sS'/tags/follar'
p1096
I01
sS'/tags/twat'
p1097
I01
sS'/tags/button'
p1098
I01
sS'/tags/gigi'
p1099
I01
sS'/tags/ridingcock'
p1100
I01
sS'/tags/starr'
p1101
I01
sS'/tags/latina'
p1102
I01
sS'/tags/am'
p1103
I01
sS'/tags/kinky'
p1104
I01
sS'/tags/an'
p1105
I01
sS'/tags/yellow'
p1106
I01
sS'/tags/ao'
p1107
I01
sS'/tags/leila'
p1108
I01
sS'/tags/herself'
p1109
I01
sS'/tags/whites'
p1110
I01
sS'/tags/device'
p1111
I01
sS'/tags/anderson'
p1112
I01
sS'/tags/cucumber'
p1113
I01
sS'/tags/maskurbate'
p1114
I01
sS'/tags/cuckolds'
p1115
I01
sS'/tags/postal'
p1116
I01
sS'/tags/mounted'
p1117
I01
sS'/tags/smile'
p1118
I01
sS'/tags/hard'
p1119
I01
sS'/tags/pigtails'
p1120
I01
sS'/tags/massagecreep'
p1121
I01
sS'/tags/coroa'
p1122
I01
sS'/tags/bombshell'
p1123
I01
sS'/tags/bff'
p1124
I01
sS'/tags/strapon'
p1125
I01
sS'/tags/pics'
p1126
I01
sS'/tags/alt'
p1127
I01
sS'/tags/casual'
p1128
I01
sS'/tags/fingered'
p1129
I01
sS'/tags/bathhouse'
p1130
I01
sS'/tags/all'
p1131
I01
sS'/tags/amazingjav'
p1132
I01
sS'/tags/pica'
p1133
I01
sS'/tags/alexander'
p1134
I01
sS'/tags/masturbandose'
p1135
I01
sS'/tags/fetish'
p1136
I01
sS'/tags/ebony'
p1137
I01
sS'/tags/pregnant'
p1138
I01
sS'/tags/video'
p1139
I01
sS'/tags/cheyenne'
p1140
I01
sS'/tags/adolescentes'
p1141
I01
sS'/tags/gay-surprise'
p1142
I01
sS'/tags/butt'
p1143
I01
sS'/tags/cuminpussy'
p1144
I01
sS'/tags/schoogirl'
p1145
I01
sS'/tags/gloves'
p1146
I01
sS'/tags/goldenshower'
p1147
I01
sS'/tags/bathtub'
p1148
I01
sS'/tags/bukake'
p1149
I01
sS'/tags/bent'
p1150
I01
sS'/tags/banged'
p1151
I01
sS'/tags/boobed'
p1152
I01
sS'/tags/videochat'
p1153
I01
sS'/tags/diana'
p1154
I01
sS'/tags/espanolas'
p1155
I01
sS'/tags/delicia'
p1156
I01
sS'/tags/chilenas'
p1157
I01
sS'/tags/idols'
p1158
I01
sS'/tags/blair'
p1159
I01
sS'/tags/strong'
p1160
I01
sS'/tags/movie'
p1161
I01
sS'/tags/pornhub'
p1162
I01
sS'/tags/girly'
p1163
I01
sS'/tags/wifes'
p1164
I01
sS'/tags/motel'
p1165
I01
sS'/tags/ex-wife'
p1166
I01
sS'/tags/grandfathers'
p1167
I01
sS'/tags/girls'
p1168
I01
sS'/tags/amore'
p1169
I01
sS'/tags/pigtail'
p1170
I01
sS'/tags/wifey'
p1171
I01
sS'/tags/gay-pissing'
p1172
I01
sS'/tags/hogtied'
p1173
I01
sS'/tags/anally'
p1174
I01
sS'/tags/brandi'
p1175
I01
sS'/tags/oiled'
p1176
I01
sS'/tags/bocceli'
p1177
I01
sS'/tags/jacuzzi'
p1178
I01
sS'/tags/bigcock'
p1179
I01
sS'/tags/webcamchat'
p1180
I01
sS'/tags/thug'
p1181
I01
sS'/tags/stretching'
p1182
I01
sS'/tags/brandy'
p1183
I01
sS'/tags/gay-rub'
p1184
I01
sS'/tags/crawford'
p1185
I01
sS'/tags/contractions'
p1186
I01
sS'/tags/camcorders'
p1187
I01
sS'/tags/lady'
p1188
I01
sS'/tags/buttfuck'
p1189
I01
sS'/tags/she'
p1190
I01
sS'/tags/realslutparty'
p1191
I01
sS'/tags/gushinglesbos'
p1192
I01
sS'/tags/ice'
p1193
I01
sS'/tags/frenchgfs'
p1194
I01
sS'/tags/annie'
p1195
I01
sS'/tags/na'
p1196
I01
sS'/tags/ripherup'
p1197
I01
sS'/tags/legal'
p1198
I01
sS'/tags/kristal'
p1199
I01
sS'/tags/threesoem'
p1200
I01
sS'/tags/shy'
p1201
I01
sS'/tags/cunt'
p1202
I01
sS'/tags/session'
p1203
I01
sS'/tags/join'
p1204
I01
sS'/tags/soapy'
p1205
I01
sS'/tags/jpmilfs'
p1206
I01
sS'/tags/fondled'
p1207
I01
sS'/tags/hotjocksnicecocks'
p1208
I01
sS'/tags/imperator'
p1209
I01
sS'/tags/ariana'
p1210
I01
sS'/tags/workingcock'
p1211
I01
sS'/tags/melons'
p1212
I01
sS'/tags/blowljob'
p1213
I01
sS'/tags/stripper'
p1214
I01
sS'/tags/gay-eutwinkin'
p1215
I01
sS'/tags/oldguy'
p1216
I01
sS'/tags/80s'
p1217
I01
sS'/tags/italy'
p1218
I01
sS'/tags/straightjerkers'
p1219
I01
sS'/tags/schoolbabe'
p1220
I01
sS'/tags/asians'
p1221
I01
sS'/tags/saddle'
p1222
I01
sS'/tags/girlongirl'
p1223
I01
sS'/tags/doggy'
p1224
I01
sS'/tags/humping'
p1225
I01
sS'/tags/p2p'
p1226
I01
sS'/tags/japinha'
p1227
I01
sS'/tags/fitness'
p1228
I01
sS'/tags/bodybuilder'
p1229
I01
sS'/tags/japa'
p1230
I01
sS'/tags/penis-sucking'
p1231
I01
sS'/tags/bouncing'
p1232
I01
sS'/tags/olivia'
p1233
I01
sS'/tags/spycam'
p1234
I01
sS'/tags/innocenthigh'
p1235
I01
sS'/tags/anal'
p1236
I01
sS'/tags/espanol'
p1237
I01
sS'/tags/changing'
p1238
I01
sS'/tags/anime'
p1239
I01
sS'/tags/ggg'
p1240
I01
sS'/tags/camwhore'
p1241
I01
sS'/tags/gay-barebackthathole'
p1242
I01
sS'/tags/lord'
p1243
I01
sS'/tags/slurpjapanese'
p1244
I01
sS'/tags/stacy'
p1245
I01
sS'/tags/masturbando'
p1246
I01
sS'/tags/busted'
p1247
I01
sS'/tags/renata'
p1248
I01
sS'/tags/electricity'
p1249
I01
sS'/tags/super'
p1250
I01
sS'/tags/facials'
p1251
I01
sS'/tags/pierced'
p1252
I01
sS'/tags/bigbabe'
p1253
I01
sS'/tags/striptease'
p1254
I01
sS'/tags/orgams'
p1255
I01
sS'/tags/redhair'
p1256
I01
sS'/tags/abbey'
p1257
I01
sS'/tags/parlor'
p1258
I01
sS'/tags/dominatrix'
p1259
I01
sS'/tags/girlfuckguy'
p1260
I01
sS'/tags/tetuda'
p1261
I01
sS'/tags/behind'
p1262
I01
sS'/tags/ball'
p1263
I01
sS'/tags/chikan'
p1264
I01
sS'/tags/megan'
p1265
I01
sS'/tags/gay-latinos'
p1266
I01
sS'/tags/21'
p1267
I01
sS'/tags/20'
p1268
I01
sS'/tags/lockerroom'
p1269
I01
sS'/tags/22'
p1270
I01
sS'/tags/britainsboys'
p1271
I01
sS'/tags/solo'
p1272
I01
sS'/tags/banner'
p1273
I01
sS'/tags/sable'
p1274
I01
sS'/tags/classic'
p1275
I01
sS'/tags/babes'
p1276
I01
sS'/tags/safadeza'
p1277
I01
sS'/tags/fun'
p1278
I01
sS'/tags/day'
p1279
I01
sS'/tags/brooke'
p1280
I01
sS'/tags/rubhim'
p1281
I01
sS'/tags/aretuza'
p1282
I01
sS'/tags/scene'
p1283
I01
sS'/tags/finegring'
p1284
I01
sS'/tags/dan'
p1285
I01
sS'/tags/slime'
p1286
I01
sS'/tags/queening'
p1287
I01
sS'/tags/tit-fuck'
p1288
I01
sS'/tags/homoemo'
p1289
I01
sS'/tags/gay-gotexbf'
p1290
I01
sS'/tags/classy'
p1291
I01
sS'/tags/dad'
p1292
I01
sS'/tags/brown'
p1293
I01
sS'/tags/texas'
p1294
I01
sS'/tags/site'
p1295
I01
sS'/tags/sierra'
p1296
I01
sS'/tags/hard-core'
p1297
I01
sS'/tags/cock-sucking'
p1298
I01
sS'/tags/sara'
p1299
I01
sS'/tags/dildofuck'
p1300
I01
sS'/tags/virgin'
p1301
I01
sS'/tags/brokestraightboys'
p1302
I01
sS'/tags/woods'
p1303
I01
sS'/tags/before'
p1304
I01
sS'/tags/event'
p1305
I01
sS'/tags/jill'
p1306
I01
sS'/tags/bagging'
p1307
I01
sS'/tags/facialized'
p1308
I01
sS'/tags/more'
p1309
I01
sS'/tags/lips'
p1310
I01
sS'/tags/sista'
p1311
I01
sS'/tags/bouncingtits'
p1312
I01
sS'/tags/english'
p1313
I01
sS'/tags/dando'
p1314
I01
sS'/tags/cumpilation'
p1315
I01
sS'/tags/assfuck'
p1316
I01
sS'/tags/queen'
p1317
I01
sS'/tags/brasilera'
p1318
I01
sS'/tags/vika'
p1319
I01
sS'/tags/deutsch'
p1320
I01
sS'/tags/taboo'
p1321
I01
sS'/tags/keri'
p1322
I01
sS'/tags/blackonwhite'
p1323
I01
sS'/tags/footfetish'
p1324
I01
sS'/tags/spa'
p1325
I01
sS'/tags/game'
p1326
I01
sS'/tags/cuzinho'
p1327
I01
sS'/tags/gay-oiled'
p1328
I01
sS'/tags/adam'
p1329
I01
sS'/tags/gay-homemade'
p1330
I01
sS'/tags/bond'
p1331
I01
sS'/tags/mexicanos'
p1332
I01
sS'/tags/ass-fuck'
p1333
I01
sS'/tags/net'
p1334
I01
sS'/tags/new'
p1335
I01
sS'/tags/com'
p1336
I01
sS'/tags/dick'
p1337
I01
sS'/tags/it'
p1338
I01
sS'/tags/media'
p1339
I01
sS'/tags/spitroast'
p1340
I01
sS'/tags/sado'
p1341
I01
sS'/tags/internal'
p1342
I01
sS'/tags/is'
p1343
I01
sS'/tags/playboy'
p1344
I01
sS'/tags/cumshots'
p1345
I01
sS'/tags/in'
p1346
I01
sS'/tags/cougar'
p1347
I01
sS'/tags/lenee'
p1348
I01
sS'/tags/cox'
p1349
I01
sS'/tags/gasxxxwebcams'
p1350
I01
sS'/tags/grandfather'
p1351
I01
sS'/tags/cow'
p1352
I01
sS'/tags/shocking'
p1353
I01
sS'/tags/rocker'
p1354
I01
sS'/tags/cop'
p1355
I01
sS'/tags/bad'
p1356
I01
sS'/tags/amy'
p1357
I01
sS'/tags/chicas'
p1358
I01
sS'/tags/doujinshi'
p1359
I01
sS'/tags/honey'
p1360
I01
sS'/tags/shared'
p1361
I01
sS'/tags/asain'
p1362
I01
sS'/tags/chaturbate'
p1363
I01
sS'/tags/double-penetration'
p1364
I01
sS'/tags/bat'
p1365
I01
sS'/tags/humilation'
p1366
I01
sS'/tags/bar'
p1367
I01
sS'/tags/strap'
p1368
I01
sS'/tags/sativa'
p1369
I01
sS'/tags/clinic'
p1370
I01
sS'/tags/allure'
p1371
I01
sS'/tags/pyt'
p1372
I01
sS'/tags/gay-worldofmen'
p1373
I01
sS'/tags/getting'
p1374
I01
sS'/tags/uk'
p1375
I01
sS'/tags/hispanic'
p1376
I01
sS'/tags/azhotporn'
p1377
I01
sS'/tags/spanked'
p1378
I01
sS'/tags/smallcock'
p1379
I01
sS'/tags/gay-partysausgage'
p1380
I01
sS'/tags/isis'
p1381
I01
sS'/tags/money'
p1382
I01
sS'/tags/eden'
p1383
I01
sS'/tags/talita'
p1384
I01
sS'/tags/gay-amateur'
p1385
I01
sS'/tags/up'
p1386
I01
sS'/tags/standing'
p1387
I01
sS'/tags/one-on-one'
p1388
I01
sS'/tags/balls'
p1389
I01
sS'/tags/21sextury'
p1390
I01
sS'/tags/2waywebcamchat'
p1391
I01
sS'/tags/23yo'
p1392
I01
sS'/tags/actor'
p1393
I01
sS'/tags/alanah'
p1394
I01
sS'/tags/gorda'
p1395
I01
sS'/tags/hot-and-mean'
p1396
I01
sS'/tags/tokyo-bang'
p1397
I01
sS'/tags/papo'
p1398
I01
sS'/tags/sonia'
p1399
I01
sS'/tags/special'
p1400
I01
sS'/tags/trepando'
p1401
I01
sS'/tags/amateurs'
p1402
I01
sS'/tags/asstopussy'
p1403
I01
sS'/tags/bald'
p1404
I01
sS'/tags/realemoexposed'
p1405
I01
sS'/tags/mamona'
p1406
I01
sS'/tags/tinychat'
p1407
I01
sS'/tags/hotwife'
p1408
I01
sS'/tags/pussyhole'
p1409
I01
sS'/tags/facil'
p1410
I01
sS'/tags/miles'
p1411
I01
sS'/tags/lins'
p1412
I01
sS'/tags/garotas'
p1413
I01
sS'/tags/hill'
p1414
I01
sS'/tags/bentover'
p1415
I01
sS'/tags/gay-exposedemos'
p1416
I01
sS'/tags/ann'
p1417
I01
sS'/tags/butthole'
p1418
I01
sS'/tags/awards'
p1419
I01
sS'/tags/miley'
p1420
I01
sS'/tags/exotica'
p1421
I01
sS'/tags/money-talks'
p1422
I01
sS'/tags/stormy'
p1423
I01
sS'/tags/cumswap'
p1424
I01
sS'/tags/homegrownflixxxcom'
p1425
I01
sS'/tags/buy'
p1426
I01
sS'/tags/banana'
p1427
I01
sS'/tags/drinking'
p1428
I01
sS'/tags/linn'
p1429
I01
sS'/tags/clamp'
p1430
I01
sS'/tags/seduction'
p1431
I01
sS'/tags/pornostar'
p1432
I01
sS'/tags/partying'
p1433
I01
sS'/tags/bukakke'
p1434
I01
sS'/tags/jesse'
p1435
I01
sS'/tags/mpeg'
p1436
I01
sS'/tags/buenos'
p1437
I01
sS'/tags/how'
p1438
I01
sS'/tags/gay-collegedudes'
p1439
I01
sS'/tags/jaymes'
p1440
I01
sS'/tags/assholes'
p1441
I01
sS'/tags/banheiro'
p1442
I01
sS'/tags/galleries'
p1443
I01
sS'/tags/sin'
p1444
I01
sS'/tags/baby'
p1445
I01
sS'/tags/three'
p1446
I01
sS'/tags/camel'
p1447
I01
sS'/tags/daughters'
p1448
I01
sS'/tags/readhead'
p1449
I01
sS'/tags/completely'
p1450
I01
sS'/tags/cherry'
p1451
I01
sS'/tags/gay-school'
p1452
I01
sS'/tags/69er'
p1453
I01
sS'/tags/anal-fuck'
p1454
I01
sS'/tags/self'
p1455
I01
sS'/tags/gay-eurotwinkin'
p1456
I01
sS'/tags/mumgotsecrets'
p1457
I01
sS'/tags/cockyboys'
p1458
I01
sS'/tags/force'
p1459
I01
sS'/tags/preston'
p1460
I01
sS'/tags/two'
p1461
I01
sS'/tags/abused'
p1462
I01
sS'/tags/gstring'
p1463
I01
sS'/tags/cutie'
p1464
I01
sS'/tags/gay-boundgods'
p1465
I01
sS'/tags/marturbando'
p1466
I01
sS'/tags/naruto'
p1467
I01
sS'/tags/gay-bukakkeboy'
p1468
I01
sS'/tags/every'
p1469
I01
sS'/tags/analbrunette'
p1470
I01
sS'/tags/asstomouth'
p1471
I01
sS'/tags/outfit'
p1472
I01
sS'/tags/dean'
p1473
I01
sS'/tags/celebrities'
p1474
I01
sS'/tags/gay-bondage'
p1475
I01
sS'/tags/assfucking'
p1476
I01
sS'/tags/mean'
p1477
I01
sS'/tags/males'
p1478
I01
sS'/tags/hentai'
p1479
I01
sS'/tags/babygotboobs'
p1480
I01
sS'/tags/dream'
p1481
I01
sS'/tags/mummygotsecrets'
p1482
I01
sS'/tags/vixen'
p1483
I01
sS'/tags/backseat'
p1484
I01
sS'/tags/cheater'
p1485
I01
sS'/tags/april'
p1486
I01
sS'/tags/unbelievable'
p1487
I01
sS'/tags/doctor'
p1488
I01
sS'/tags/gag'
p1489
I01
sS'/tags/porche'
p1490
I01
sS'/tags/pass'
p1491
I01
sS'/tags/breast'
p1492
I01
sS'/tags/xota'
p1493
I01
sS'/tags/bumfucking'
p1494
I01
sS'/tags/emo'
p1495
I01
sS'/tags/courtney'
p1496
I01
sS'/tags/striper'
p1497
I01
sS'/tags/teasing'
p1498
I01
sS'/tags/gay'
p1499
I01
sS'/tags/schwarz'
p1500
I01
sS'/tags/corno'
p1501
I01
sS'/tags/transsexuel'
p1502
I01
sS'/tags/adriana'
p1503
I01
sS'/tags/unbelievably'
p1504
I01
sS'/tags/uncensored'
p1505
I01
sS'/tags/grandpa'
p1506
I01
sS'/tags/baise'
p1507
I01
sS'/tags/katja'
p1508
I01
sS'/tags/adultgames'
p1509
I01
sS'/tags/gostosas'
p1510
I01
sS'/tags/gay-asshole'
p1511
I01
sS'/tags/fotos'
p1512
I01
sS'/tags/lesbiche'
p1513
I01
sS'/tags/women'
p1514
I01
sS'/tags/prettyshowgirls'
p1515
I01
sS'/tags/bigtits-at-work'
p1516
I01
sS'/tags/voyeur'
p1517
I01
sS'/tags/lovelace'
p1518
I01
sS'/tags/dome'
p1519
I01
sS'/tags/dreaming'
p1520
I01
sS'/tags/members'
p1521
I01
sS'/tags/jezel'
p1522
I01
sS'/tags/roxina'
p1523
I01
sS'/tags/misty'
p1524
I01
sS'/tags/gay-fuckthug'
p1525
I01
sS'/tags/jayden'
p1526
I01
sS'/tags/gay-hardonjob'
p1527
I01
sS'/tags/dped'
p1528
I01
sS'/tags/blindfolded'
p1529
I01
sS'/tags/muscles'
p1530
I01
sS'/tags/story'
p1531
I01
sS'/tags/jensen'
p1532
I01
sS'/tags/fuck'
p1533
I01
sS'/tags/secretaria'
p1534
I01
sS'/tags/racial'
p1535
I01
sS'/tags/gayinterracial'
p1536
I01
sS'/tags/muscled'
p1537
I01
sS'/tags/shag'
p1538
I01
sS'/tags/ukrainian'
p1539
I01
sS'/tags/boobjob'
p1540
I01
sS'/tags/oralsex'
p1541
I01
sS'/tags/oldvsyoung'
p1542
I01
sS'/tags/doggystyl'
p1543
I01
sS'/tags/finger'
p1544
I01
sS'/tags/alternative'
p1545
I01
sS'/tags/vib'
p1546
I01
sS'/tags/vid'
p1547
I01
sS'/tags/sexchat'
p1548
I01
sS'/tags/grandpas'
p1549
I01
sS'/tags/very'
p1550
I01
sS'/tags/gay-randyblow'
p1551
I01
sS'/tags/vip'
p1552
I01
sS'/tags/tea'
p1553
I01
sS'/tags/shay'
p1554
I01
sS'/tags/gay-sausage'
p1555
I01
sS'/tags/negra'
p1556
I01
sS'/tags/cdspbissexual'
p1557
I01
sS'/tags/savageasia'
p1558
I01
sS'/tags/perfect'
p1559
I01
sS'/tags/rios'
p1560
I01
sS'/tags/sixty-nine'
p1561
I01
sS'/tags/esposas'
p1562
I01
sS'/tags/coppie'
p1563
I01
sS'/tags/captures'
p1564
I01
sS'/tags/negro'
p1565
I01
sS'/tags/scandal'
p1566
I01
sS'/tags/insertions'
p1567
I01
sS'/tags/phatty'
p1568
I01
sS'/tags/waiting'
p1569
I01
sS'/tags/gay-thug'
p1570
I01
sS'/tags/jean'
p1571
I01
sS'/tags/garter'
p1572
I01
sS'/tags/login'
p1573
I01
sS'/tags/mommygotboobs'
p1574
I01
sS'/tags/black-dick'
p1575
I01
sS'/tags/hermosa'
p1576
I01
sS'/tags/roberts'
p1577
I01
sS'/tags/boot'
p1578
I01
sS'/tags/bathroom'
p1579
I01
sS'/tags/samantha'
p1580
I01
sS'/tags/cumgarling'
p1581
I01
sS'/tags/analbeads'
p1582
I01
sS'/tags/swinging'
p1583
I01
sS'/tags/gay-rubbing'
p1584
I01
sS'/tags/fetishe'
p1585
I01
sS'/tags/multipleblowjobs'
p1586
I01
sS'/tags/blolwjob'
p1587
I01
sS'/tags/boob'
p1588
I01
sS'/tags/stripp'
p1589
I01
sS'/tags/gay-lollitwinks'
p1590
I01
sS'/tags/deepthroat'
p1591
I01
sS'/tags/sweetheart'
p1592
I01
sS'/tags/gushinglezzies'
p1593
I01
sS'/tags/czechian'
p1594
I01
sS'/tags/rear'
p1595
I01
sS'/tags/poledancing'
p1596
I01
sS'/tags/hq'
p1597
I01
sS'/tags/ho'
p1598
I01
sS'/tags/wierdjapan'
p1599
I01
sS'/tags/enjoys'
p1600
I01
sS'/tags/piercing'
p1601
I01
sS'/tags/real'
p1602
I01
sS'/tags/livesex'
p1603
I01
sS'/tags/jordan'
p1604
I01
sS'/tags/stairs'
p1605
I01
sS'/tags/he'
p1606
I01
sS'/tags/hd'
p1607
I01
sS'/tags/chrishelix'
p1608
I01
sS'/tags/sisters'
p1609
I01
sS'/tags/tetonas'
p1610
I01
sS'/tags/blackporn'
p1611
I01
sS'/tags/menhardatwork'
p1612
I01
sS'/tags/sacanagem'
p1613
I01
sS'/tags/old'
p1614
I01
sS'/tags/knight'
p1615
I01
sS'/tags/firstime'
p1616
I01
sS'/tags/yummy'
p1617
I01
sS'/tags/vadia'
p1618
I01
sS'/tags/make'
p1619
I01
sS'/tags/anna'
p1620
I01
sS'/tags/chair'
p1621
I01
sS'/tags/gruesa'
p1622
I01
sS'/tags/anne'
p1623
I01
sS'/tags/gay-sucking'
p1624
I01
sS'/tags/shoe'
p1625
I01
sS'/tags/reynolds'
p1626
I01
sS'/tags/pornocaleta'
p1627
I01
sS'/tags/blackhair'
p1628
I01
sS'/tags/kapri'
p1629
I01
sS'/tags/caseira'
p1630
I01
sS'/tags/gotbuttered'
p1631
I01
sS'/tags/hotel'
p1632
I01
sS'/tags/kawaii'
p1633
I01
sS'/tags/shooted'
p1634
I01
sS'/tags/roxana'
p1635
I01
sS'/tags/caseiro'
p1636
I01
sS'/tags/shot'
p1637
I01
sS'/tags/brittney'
p1638
I01
sS'/tags/models'
p1639
I01
sS'/tags/fragile'
p1640
I01
sS'/tags/bigclit'
p1641
I01
sS'/tags/jeune'
p1642
I01
sS'/tags/poolside'
p1643
I01
sS'/tags/firsttime'
p1644
I01
sS'/tags/gay-steamhouse'
p1645
I01
sS'/tags/camfrog'
p1646
I01
sS'/tags/brittany'
p1647
I01
sS'/tags/humiliation'
p1648
I01
sS'/tags/briana'
p1649
I01
sS'/tags/gay-wanking'
p1650
I01
sS'/tags/ashlyn'
p1651
I01
sS'/tags/iknowthatgirl'
p1652
I01
sS'/tags/calcinha'
p1653
I01
sS'/tags/gay-iamamarriedman'
p1654
I01
sS'/tags/shemales'
p1655
I01
sS'/tags/sporty-girl'
p1656
I01
sS'/tags/oldyoung'
p1657
I01
sS'/tags/butt-fucking'
p1658
I01
sS'/tags/stoya'
p1659
I01
sS'/tags/tetas'
p1660
I01
sS'/tags/messenger'
p1661
I01
sS'/tags/gay-redhotlatin'
p1662
I01
sS'/tags/cavalgando'
p1663
I01
sS'/tags/studs'
p1664
I01
sS'/tags/xxx'
p1665
I01
sS'/tags/amatuers'
p1666
I01
sS'/tags/trimmed'
p1667
I01
sS'/tags/lexi'
p1668
I01
sS'/tags/gay-wantemstraight'
p1669
I01
sS'/tags/xxl'
p1670
I01
sS'/tags/testing'
p1671
I01
sS'/tags/muscular'
p1672
I01
sS'/tags/devon'
p1673
I01
sS'/tags/california'
p1674
I01
sS'/tags/talk'
p1675
I01
sS'/tags/fucks'
p1676
I01
sS'/tags/dildos'
p1677
I01
sS'/tags/celebrity'
p1678
I01
sS'/tags/gay-blowjob'
p1679
I01
sS'/tags/weirdjp'
p1680
I01
sS'/tags/gay-massage'
p1681
I01
sS'/tags/jumping'
p1682
I01
sS'/tags/curious'
p1683
I01
sS'/tags/heels'
p1684
I01
sS'/tags/cummed'
p1685
I01
sS'/tags/5xbe'
p1686
I01
sS'/tags/publicsex'
p1687
I01
sS'/tags/santhiago'
p1688
I01
sS'/tags/university'
p1689
I01
sS'/tags/twinks'
p1690
I01
sS'/tags/huge-boobs'
p1691
I01
sS'/tags/jewel'
p1692
I01
sS'/tags/cbt'
p1693
I01
sS'/tags/happy'
p1694
I01
sS'/tags/ball-licking'
p1695
I01
sS'/tags/beautiful'
p1696
I01
sS'/tags/scat'
p1697
I01
sS'/tags/madura'
p1698
I01
sS'/tags/maya'
p1699
I01
sS'/tags/tube'
p1700
I01
sS'/tags/thompson'
p1701
I01
sS'/tags/ponytail'
p1702
I01
sS'/tags/incredible'
p1703
I01
sS'/tags/check'
p1704
I01
sS'/tags/nacho'
p1705
I01
sS'/tags/lizzy'
p1706
I01
sS'/tags/myjpteacher'
p1707
I01
sS'/tags/submit-that-bitch'
p1708
I01
sS'/tags/redhaired'
p1709
I01
sS'/tags/gangband'
p1710
I01
sS'/tags/gangbang'
p1711
I01
sS'/tags/cameron'
p1712
I01
sS'/tags/savage'
p1713
I01
sS'/tags/dating'
p1714
I01
sS'/tags/jovencita'
p1715
I01
sS'/tags/large-dick'
p1716
I01
sS'/tags/best'
p1717
I01
sS'/tags/ganbang'
p1718
I01
sS'/tags/realblackexposed'
p1719
I01
sS'/tags/dbm'
p1720
I01
sS'/tags/tentacle'
p1721
I01
sS'/tags/lapdance'
p1722
I01
sS'/tags/trainer'
p1723
I01
sS'/tags/smoking'
p1724
I01
sS'/tags/katjakassin'
p1725
I01
sS'/tags/jerkingoff'
p1726
I01
sS'/tags/gagged'
p1727
I01
sS'/tags/duro'
p1728
I01
sS'/tags/hdidols'
p1729
I01
sS'/tags/dime'
p1730
I01
sS'/tags/page'
p1731
I01
sS'/tags/forwomen'
p1732
I01
sS'/tags/thick'
p1733
I01
sS'/tags/longnails'
p1734
I01
sS'/tags/trap'
p1735
I01
sS'/tags/leone'
p1736
I01
sS'/tags/whiteonblack'
p1737
I01
sS'/tags/foxxx'
p1738
I01
sS'/tags/shortinho'
p1739
I01
sS'/tags/cuck'
p1740
I01
sS'/tags/sahved'
p1741
I01
sS'/tags/sesso'
p1742
I01
sS'/tags/hadcore'
p1743
I01
sS'/tags/femme'
p1744
I01
sS'/tags/retro'
p1745
I01
sS'/tags/videosex'
p1746
I01
sS'/tags/pinkpussy'
p1747
I01
sS'/tags/large-ladies'
p1748
I01
sS'/tags/riding'
p1749
I01
sS'/tags/jalifstudio'
p1750
I01
sS'/tags/lena'
p1751
I01
sS'/tags/evening'
p1752
I01
sS'/tags/relax'
p1753
I01
sS'/tags/handjobs'
p1754
I01
sS'/tags/cam'
p1755
I01
sS'/tags/ano'
p1756
I01
sS'/tags/anita'
p1757
I01
sS'/tags/hetero'
p1758
I01
sS'/tags/face-fuck'
p1759
I01
sS'/tags/lestian'
p1760
I01
sS'/tags/exgfs'
p1761
I01
sS'/tags/blooming'
p1762
I01
sS'/tags/and'
p1763
I01
sS'/tags/gay-masturbate'
p1764
I01
sS'/tags/ana'
p1765
I01
sS'/tags/jpracequeen'
p1766
I01
sS'/tags/bareback'
p1767
I01
sS'/tags/dvd'
p1768
I01
sS'/tags/swift'
p1769
I01
sS'/tags/to'
p1770
I01
sS'/tags/fanny'
p1771
I01
sS'/tags/bigdick'
p1772
I01
sS'/tags/sean'
p1773
I01
sS'/tags/assnippon'
p1774
I01
sS'/tags/ozawa'
p1775
I01
sS'/tags/sellyoursextapes'
p1776
I01
sS'/tags/teensex'
p1777
I01
sS'/tags/lipps'
p1778
I01
sS'/tags/nena'
p1779
I01
sS'/tags/crowd'
p1780
I01
sS'/tags/experience'
p1781
I01
sS'/tags/ts'
p1782
I01
sS'/tags/tv'
p1783
I01
sS'/tags/father'
p1784
I01
sS'/tags/lusty'
p1785
I01
sS'/tags/bathroombait'
p1786
I01
sS'/tags/gay-interracial'
p1787
I01
sS'/tags/shorts'
p1788
I01
sS'/tags/submission'
p1789
I01
sS'/tags/puerto'
p1790
I01
sS'/tags/insertion'
p1791
I01
sS'/tags/quatro'
p1792
I01
sS'/tags/gay-hazed'
p1793
I01
sS'/tags/necktie'
p1794
I01
sS'/tags/bottom'
p1795
I01
sS'/tags/moans'
p1796
I01
sS'/tags/tape'
p1797
I01
sS'/tags/gf'
p1798
I01
sS'/tags/lesbianbarefoot'
p1799
I01
sS'/tags/159i'
p1800
I01
sS'/tags/psusyfucking'
p1801
I01
sS'/tags/ladysonia'
p1802
I01
sS'/tags/jpnurse'
p1803
I01
sS'/tags/extremenaturals'
p1804
I01
sS'/tags/anl-nippon'
p1805
I01
sS'/tags/moana'
p1806
I01
sS'/tags/boyfeast'
p1807
I01
sS'/tags/zorra'
p1808
I01
sS'/tags/saunas'
p1809
I01
sS'/tags/lesbos'
p1810
I01
sS'/tags/been'
p1811
I01
sS'/tags/katrina'
p1812
I01
sS'/tags/loads'
p1813
I01
sS'/tags/redlight'
p1814
I01
sS'/tags/phatass'
p1815
I01
sS'/tags/jpflashers'
p1816
I01
sS'/tags/takes'
p1817
I01
sS'/tags/tamil'
p1818
I01
sS'/tags/redhotlatin'
p1819
I01
sS'/tags/mulata'
p1820
I01
sS'/tags/keyes'
p1821
I01
sS'/tags/vidposter'
p1822
I01
sS'/tags/need'
p1823
I01
sS'/tags/penetrated'
p1824
I01
sS'/tags/homohusband'
p1825
I01
sS'/tags/steal'
p1826
I01
sS'/tags/gay-breedmeraw'
p1827
I01
sS'/tags/camwithher'
p1828
I01
sS'/tags/gay-sex'
p1829
I01
sS'/tags/jiggle'
p1830
I01
sS'/tags/kincaid'
p1831
I01
sS'/tags/erika'
p1832
I01
sS'/tags/teens-at-work'
p1833
I01
sS'/tags/sologirl'
p1834
I01
sS'/tags/hoes'
p1835
I01
sS'/tags/slutparty'
p1836
I01
sS'/tags/cum-shot'
p1837
I01
sS'/tags/mujeres'
p1838
I01
sS'/tags/first-time'
p1839
I01
sS'/tags/strange'
p1840
I01
sS'/tags/multiple'
p1841
I01
sS'/tags/foreign'
p1842
I01
sS'/tags/dudes'
p1843
I01
sS'/tags/dicksucking'
p1844
I01
sS'/tags/polla'
p1845
I01
sS'/tags/dental'
p1846
I01
sS'/tags/liveviolet'
p1847
I01
sS'/tags/vicious'
p1848
I01
sS'/tags/bodyoil'
p1849
I01
sS'/tags/hartley'
p1850
I01
sS'/tags/punish'
p1851
I01
sS'/tags/kim'
p1852
I01
sS'/tags/rebel'
p1853
I01
sS'/tags/jilling'
p1854
I01
sS'/tags/tiedup'
p1855
I01
sS'/tags/fake'
p1856
I01
sS'/tags/adrianna'
p1857
I01
sS'/tags/max'
p1858
I01
sS'/tags/may'
p1859
I01
sS'/tags/teaser'
p1860
I01
sS'/tags/side'
p1861
I01
sS'/tags/emos'
p1862
I01
sS'/tags/dancer'
p1863
I01
sS'/tags/gay-boyfriendnudes'
p1864
I01
sS'/tags/danish'
p1865
I01
sS'/tags/andrea'
p1866
I01
sS'/tags/freshmen'
p1867
I01
sS'/tags/tugjobs'
p1868
I01
sS'/tags/humiliated'
p1869
I01
sS'/tags/gay-boundpride'
p1870
I01
sS'/tags/man'
p1871
I01
sS'/tags/flog'
p1872
I01
sS'/tags/sexgames'
p1873
I01
sS'/tags/2010'
p1874
I01
sS'/tags/2011'
p1875
I01
sS'/tags/2012'
p1876
I01
sS'/tags/plumper'
p1877
I01
sS'/tags/cumswapping'
p1878
I01
sS'/tags/gaymuscle'
p1879
I01
sS'/tags/boaz'
p1880
I01
sS'/tags/sodomize'
p1881
I01
sS'/tags/orgasms'
p1882
I01
sS'/tags/hospital'
p1883
I01
sS'/tags/gyno'
p1884
I01
sS'/tags/online'
p1885
I01
sS'/tags/amatoriale'
p1886
I01
sS'/tags/games'
p1887
I01
sS'/tags/gay-boys'
p1888
I01
sS'/tags/perfeita'
p1889
I01
sS'/tags/gay-straightwankers'
p1890
I01
sS'/tags/orgasmo'
p1891
I01
sS'/tags/hubby'
p1892
I01
sS'/tags/gaybait'
p1893
I01
sS'/tags/cocksucekrs'
p1894
I01
sS'/tags/van'
p1895
I01
sS'/tags/couch'
p1896
I01
sS'/tags/brother'
p1897
I01
sS'/tags/shave'
p1898
I01
sS'/tags/gay-frat'
p1899
I01
sS'/tags/this'
p1900
I01
sS'/tags/ellen'
p1901
I01
sS'/tags/hip'
p1902
I01
sS'/tags/girl-on-girl'
p1903
I01
sS'/tags/military'
p1904
I01
sS'/tags/girlfriend'
p1905
I01
sS'/tags/bedroom'
p1906
I01
sS'/tags/lesbirimjob'
p1907
I01
sS'/tags/tiffany'
p1908
I01
sS'/tags/biaggi'
p1909
I01
sS'/tags/animated'
p1910
I01
sS'/tags/katie'
p1911
I01
sS'/tags/four'
p1912
I01
sS'/tags/pussy'
p1913
I01
sS'/tags/lollipop'
p1914
I01
sS'/tags/gay-tasttwink'
p1915
I01
sS'/tags/flat'
p1916
I01
sS'/tags/rough-sex'
p1917
I01
sS'/tags/gangster'
p1918
I01
sS'/tags/jeans'
p1919
I01
sS'/tags/espia'
p1920
I01
sS'/tags/cole'
p1921
I01
sS'/tags/javhq'
p1922
I01
sS'/tags/made'
p1923
I01
sS'/tags/gangbanged'
p1924
I01
sS'/tags/exclusive'
p1925
I01
sS'/tags/rectum'
p1926
I01
sS'/tags/news'
p1927
I01
sS'/tags/woman'
p1928
I01
sS'/tags/together'
p1929
I01
sS'/tags/faye'
p1930
I01
sS'/tags/full'
p1931
I01
sS'/tags/olson'
p1932
I01
sS'/tags/ex'
p1933
I01
sS'/tags/nature'
p1934
I01
sS'/tags/uda'
p1935
I01
sS'/tags/heaven'
p1936
I01
sS'/tags/office'
p1937
I01
sS'/tags/jamie'
p1938
I01
sS'/tags/cityhookups'
p1939
I01
sS'/tags/collection'
p1940
I01
sS'/tags/101'
p1941
I01
sS'/tags/100'
p1942
I01
sS'/tags/realasianamateur'
p1943
I01
sS'/tags/rebecca'
p1944
I01
sS'/tags/loren'
p1945
I01
sS'/tags/denial'
p1946
I01
sS'/tags/el'
p1947
I01
sS'/tags/cumswallow'
p1948
I01
sS'/tags/using'
p1949
I01
sS'/tags/beautiful-ass'
p1950
I01
sS'/tags/bigwetbutts'
p1951
I01
sS'/tags/knockers'
p1952
I01
sS'/tags/dior'
p1953
I01
sS'/tags/hairpulling'
p1954
I01
sS'/tags/webcamchick'
p1955
I01
sS'/tags/gay-mybaitbuddy'
p1956
I01
sS'/tags/hollander'
p1957
I01
sS'/tags/sharing'
p1958
I01
sS'/tags/prague'
p1959
I01
sS'/tags/deansboy'
p1960
I01
sS'/tags/close-ups'
p1961
I01
sS'/tags/cuntlicking'
p1962
I01
sS'/tags/bushy'
p1963
I01
sS'/tags/hailey'
p1964
I01
sS'/tags/cyane'
p1965
I01
sS'/tags/chola'
p1966
I01
sS'/tags/grande'
p1967
I01
sS'/tags/heart'
p1968
I01
sS'/tags/glory-hole'
p1969
I01
sS'/tags/prettyshowgirl'
p1970
I01
sS'/tags/smothering'
p1971
I01
sS'/tags/good'
p1972
I01
sS'/tags/bounce'
p1973
I01
sS'/tags/caralho'
p1974
I01
sS'/tags/nadia'
p1975
I01
sS'/tags/lesbiansex'
p1976
I01
sS'/tags/cinema'
p1977
I01
sS'/tags/brazillian'
p1978
I01
sS'/tags/asses-in-public'
p1979
I01
sS'/tags/gay-trimmed'
p1980
I01
sS'/tags/chat'
p1981
I01
sS'/tags/big-boobs'
p1982
I01
sS'/tags/gay-brother'
p1983
I01
sS'/tags/mother-in-law'
p1984
I01
sS'/tags/itsgonnahurt'
p1985
I01
sS'/tags/doublepenetration'
p1986
I01
sS'/tags/jane'
p1987
I01
sS'/tags/nika'
p1988
I01
sS'/tags/jana'
p1989
I01
sS'/tags/faith'
p1990
I01
sS'/tags/butter-loads'
p1991
I01
sS'/tags/daydreams'
p1992
I01
sS'/tags/michelle'
p1993
I01
sS'/tags/play'
p1994
I01
sS'/tags/nice-tits'
p1995
I01
sS'/tags/czech'
p1996
I01
sS'/tags/reach'
p1997
I01
sS'/tags/denise'
p1998
I01
sS'/tags/pounding'
p1999
I01
sS'/tags/cockslut'
p2000
I01
sS'/tags/contest'
p2001
I01
sS'/tags/asleep'
p2002
I01
sS'/tags/close'
p2003
I01
sS'/tags/tanned'
p2004
I01
sS'/tags/lesbisch'
p2005
I01
sS'/tags/mini'
p2006
I01
sS'/tags/louise'
p2007
I01
sS'/tags/passion'
p2008
I01
sS'/tags/mexicanas'
p2009
I01
sS'/tags/smoothlatins'
p2010
I01
sS'/tags/leon'
p2011
I01
sS'/tags/crystal'
p2012
I01
sS'/tags/entertainment'
p2013
I01
sS'/tags/hookup'
p2014
I01
sS'/tags/gay-guycreep'
p2015
I01
sS'/tags/minx'
p2016
I01
sS'/tags/blacksonboys'
p2017
I01
sS'/tags/cock-ride'
p2018
I01
sS'/tags/tette'
p2019
I01
sS'/tags/bruentte'
p2020
I01
sS'/tags/stuffing'
p2021
I01
sS'/tags/SquirtBukkake'
p2022
I01
sS'/tags/recorded'
p2023
I01
sS'/tags/japaneseflashers'
p2024
I01
sS'/tags/facesit'
p2025
I01
sS'/tags/gay-collegemeat'
p2026
I01
sS'/tags/rock'
p2027
I01
sS'/tags/cougarmom'
p2028
I01
sS'/tags/bait'
p2029
I01
sS'/tags/pulling'
p2030
I01
sS'/tags/rimmed'
p2031
I01
sS'/tags/flirt'
p2032
I01
sS'/tags/gotcreeped'
p2033
I01
sS'/tags/inside'
p2034
I01
sS'/tags/jessica'
p2035
I01
sS'/tags/voyer'
p2036
I01
sS'/tags/charming'
p2037
I01
sS'/tags/stacked'
p2038
I01
sS'/tags/namorada'
p2039
I01
sS'/tags/vagina'
p2040
I01
sS'/tags/swimsuit'
p2041
I01
sS'/tags/socks'
p2042
I01
sS'/tags/latinas'
p2043
I01
sS'/tags/position'
p2044
I01
sS'/tags/humiliating'
p2045
I01
sS'/tags/ryder'
p2046
I01
sS'/tags/gotmasked'
p2047
I01
sS'/tags/eurosex'
p2048
I01
sS'/tags/gay-married'
p2049
I01
sS'/tags/myjpnurse'
p2050
I01
sS'/tags/shavedpussy'
p2051
I01
sS'/tags/wants'
p2052
I01
sS'/tags/allie'
p2053
I01
sS'/tags/bangbus'
p2054
I01
sS'/tags/parker'
p2055
I01
sS'/tags/resse'
p2056
I01
sS'/tags/lea'
p2057
I01
sS'/tags/leg'
p2058
I01
sS'/tags/grope'
p2059
I01
sS'/tags/lee'
p2060
I01
sS'/tags/neighbor'
p2061
I01
sS'/tags/lei'
p2062
I01
sS'/tags/fishnets'
p2063
I01
sS'/tags/also'
p2064
I01
sS'/tags/safadas'
p2065
I01
sS'/tags/latinosmooth'
p2066
I01
sS'/tags/les'
p2067
I01
sS'/tags/pissdrink'
p2068
I01
sS'/tags/fondling'
p2069
I01
sS'/tags/extrem'
p2070
I01
sS'/tags/guys'
p2071
I01
sS'/tags/bothersbf'
p2072
I01
sS'/tags/lex'
p2073
I01
sS'/tags/andi'
p2074
I01
sS'/tags/humiliate'
p2075
I01
sS'/tags/swallow'
p2076
I01
sS'/tags/stephanie'
p2077
I01
sS'/tags/beautifulgirls'
p2078
I01
sS'/tags/slut-party'
p2079
I01
sS'/tags/mae'
p2080
I01
sS'/tags/ink'
p2081
I01
sS'/tags/eat'
p2082
I01
sS'/tags/daredorm'
p2083
I01
sS'/tags/son'
p2084
I01
sS'/tags/brunnette'
p2085
I01
sS'/tags/sol'
p2086
I01
sS'/tags/have'
p2087
I01
sS'/tags/blackdick'
p2088
I01
sS'/tags/adult-toys'
p2089
I01
sS'/tags/patient'
p2090
I01
sS'/tags/busy'
p2091
I01
sS'/tags/escorts'
p2092
I01
sS'/tags/mamacita'
p2093
I01
sS'/tags/bisex'
p2094
I01
sS'/tags/hardocre'
p2095
I01
sS'/tags/free'
p2096
I01
sS'/tags/lacey'
p2097
I01
sS'/tags/sapphicerotica'
p2098
I01
sS'/tags/gozando'
p2099
I01
sS'/tags/gay-teen'
p2100
I01
sS'/tags/spoons'
p2101
I01
sS'/tags/bigtits-boss'
p2102
I01
sS'/tags/massages'
p2103
I01
sS'/tags/uniforms'
p2104
I01
sS'/tags/publicjapan'
p2105
I01
sS'/tags/sweets'
p2106
I01
sS'/tags/office-sex'
p2107
I01
sS'/tags/pornstarpunishment'
p2108
I01
sS'/tags/close-up'
p2109
I01
sS'/tags/shaving'
p2110
I01
sS'/tags/banging'
p2111
I01
sS'/tags/kianna'
p2112
I01
sS'/tags/shoes'
p2113
I01
sS'/tags/wrestle'
p2114
I01
sS'/tags/barebacked'
p2115
I01
sS'/tags/ninfetinha'
p2116
I01
sS'/tags/karen'
p2117
I01
sS'/tags/gay-solo'
p2118
I01
sS'/tags/fodendo'
p2119
I01
sS'/tags/watersport'
p2120
I01
sS'/tags/info'
p2121
I01
sS'/tags/outdoor'
p2122
I01
sS'/tags/exgf'
p2123
I01
sS'/tags/alektra'
p2124
I01
sS'/tags/hymen'
p2125
I01
sS'/tags/forher'
p2126
I01
sS'/tags/masterbate'
p2127
I01
sS'/tags/slim'
p2128
I01
sS'/tags/3sum'
p2129
I01
sS'/tags/whitedicklovingsistas'
p2130
I01
sS'/tags/paris'
p2131
I01
sS'/tags/mouthful'
p2132
I01
sS'/tags/original'
p2133
I01
sS'/tags/toongay'
p2134
I01
sS'/tags/barbie'
p2135
I01
sS'/tags/fingering'
p2136
I01
sS'/tags/lezzie'
p2137
I01
sS'/tags/tropical'
p2138
I01
sS'/tags/secretary'
p2139
I01
sS'/tags/vehicle'
p2140
I01
sS'/tags/caps'
p2141
I01
sS'/tags/analwhore'
p2142
I01
sS'/tags/cocklicking'
p2143
I01
sS'/tags/got'
p2144
I01
sS'/tags/gotsurprise'
p2145
I01
sS'/tags/slapped'
p2146
I01
sS'/tags/assgape'
p2147
I01
sS'/tags/jollee'
p2148
I01
sS'/tags/nudity'
p2149
I01
sS'/tags/tiny'
p2150
I01
sS'/tags/blue'
p2151
I01
sS'/tags/titsfuck'
p2152
I01
sS'/tags/milf'
p2153
I01
sS'/tags/parejas'
p2154
I01
sS'/tags/assparade'
p2155
I01
sS'/tags/hardonjob'
p2156
I01
sS'/tags/house'
p2157
I01
sS'/tags/doll'
p2158
I01
sS'/tags/realy'
p2159
I01
sS'/tags/married'
p2160
I01
sS'/tags/beach'
p2161
I01
sS'/tags/fully'
p2162
I01
sS'/tags/caprice'
p2163
I01
sS'/tags/666maniak'
p2164
I01
sS'/tags/tina'
p2165
I01
sS'/tags/urinate'
p2166
I01
sS'/tags/labia'
p2167
I01
sS'/tags/cumswallowing'
p2168
I01
sS'/tags/sexparty'
p2169
I01
sS'/tags/discreet'
p2170
I01
sS'/tags/sofia'
p2171
I01
sS'/tags/caroline'
p2172
I01
sS'/tags/opened'
p2173
I01
sS'/tags/tabitha'
p2174
I01
sS'/tags/romania'
p2175
I01
sS'/tags/master'
p2176
I01
sS'/tags/brasileiras'
p2177
I01
sS'/tags/twink'
p2178
I01
sS'/tags/bathing'
p2179
I01
sS'/tags/spanking'
p2180
I01
sS'/tags/pamela'
p2181
I01
sS'/tags/makerley'
p2182
I01
sS'/tags/dicks'
p2183
I01
sS'/tags/camgirl'
p2184
I01
sS'/tags/dylan'
p2185
I01
sS'/tags/pumped'
p2186
I01
sS'/tags/tran'
p2187
I01
sS'/tags/cybersex'
p2188
I01
sS'/tags/leakedvideo'
p2189
I01
sS'/tags/sapphicbarefoot'
p2190
I01
sS'/tags/ireland'
p2191
I01
sS'/tags/humiliatrix'
p2192
I01
sS'/tags/classroom'
p2193
I01
sS'/tags/comendo'
p2194
I01
sS'/tags/psycho'
p2195
I01
sS'/tags/boa'
p2196
I01
sS'/tags/cowgirl'
p2197
I01
sS'/tags/collegerules'
p2198
I01
sS'/tags/dancingbear'
p2199
I01
sS'/tags/gayhardcore'
p2200
I01
sS'/tags/kitchen'
p2201
I01
sS'/tags/audience'
p2202
I01
sS'/tags/nicetits'
p2203
I01
sS'/tags/ever'
p2204
I01
sS'/tags/apple'
p2205
I01
sS'/tags/kittyasian'
p2206
I01
sS'/tags/drill'
p2207
I01
sS'/tags/pickup'
p2208
I01
sS'/tags/girl'
p2209
I01
sS'/tags/cyber'
p2210
I01
sS'/tags/2009'
p2211
I01
sS'/tags/2008'
p2212
I01
sS'/tags/perv'
p2213
I01
sS'/tags/caucasian'
p2214
I01
sS'/tags/asianporn'
p2215
I01
sS'/tags/forest'
p2216
I01
sS'/tags/relacionamento'
p2217
I01
sS'/tags/europorn'
p2218
I01
sS'/tags/his'
p2219
I01
sS'/tags/cumshoot'
p2220
I01
sS'/tags/bodies'
p2221
I01
sS'/tags/lesbienne'
p2222
I01
sS'/tags/sitter'
p2223
I01
sS'/tags/lexington'
p2224
I01
sS'/tags/on-a-desk'
p2225
I01
sS'/tags/gay-bareassadventure'
p2226
I01
sS'/tags/redheads'
p2227
I01
sS'/tags/office-fuck'
p2228
I01
sS'/tags/mycuteasian'
p2229
I01
sS'/tags/leche'
p2230
I01
sS'/tags/life'
p2231
I01
sS'/tags/alicia'
p2232
I01
sS'/tags/anonymous'
p2233
I01
sS'/tags/ju'
p2234
I01
sS'/tags/fuckin'
p2235
I01
sS'/tags/window'
p2236
I01
sS'/tags/titsucking'
p2237
I01
sS'/tags/js'
p2238
I01
sS'/tags/podrywacze'
p2239
I01
sS'/tags/business'
p2240
I01
sS'/tags/gay-stripping'
p2241
I01
sS'/tags/analfucked'
p2242
I01
sS'/tags/spreads'
p2243
I01
sS'/tags/moms'
p2244
I01
sS'/tags/str8'
p2245
I01
sS'/tags/lesbica'
p2246
I01
sS'/tags/violate'
p2247
I01
sS'/tags/sausage'
p2248
I01
sS'/tags/black-haired'
p2249
I01
sS'/tags/jo'
p2250
I01
sS'/tags/over'
p2251
I01
sS'/tags/selfsuck'
p2252
I01
sS'/tags/lingerie'
p2253
I01
sS'/tags/boobies'
p2254
I01
sS'/tags/cherokee'
p2255
I01
sS'/tags/daniels'
p2256
I01
sS'/tags/sexi'
p2257
I01
sS'/tags/putona'
p2258
I01
sS'/tags/march'
p2259
I01
sS'/tags/dymes'
p2260
I01
sS'/tags/dragqueen'
p2261
I01
sS'/tags/bunny'
p2262
I01
sS'/tags/cock'
p2263
I01
sS'/tags/each'
p2264
I01
sS'/tags/webcam'
p2265
I01
sS'/tags/nurse'
p2266
I01
sS'/tags/daniela'
p2267
I01
sS'/tags/cumonface'
p2268
I01
sS'/tags/maid'
p2269
I01
sS'/tags/dreams'
p2270
I01
sS'/tags/gay-gotbf'
p2271
I01
sS'/tags/point'
p2272
I01
sS'/tags/bondaged'
p2273
I01
sS'/tags/naturist'
p2274
I01
sS'/tags/leah'
p2275
I01
sS'/tags/sun'
p2276
I01
sS'/tags/closeups'
p2277
I01
sS'/tags/tenn'
p2278
I01
sS'/tags/kayla'
p2279
I01
sS'/tags/whore'
p2280
I01
sS'/tags/bath'
p2281
I01
sS'/tags/sextoys'
p2282
I01
sS'/tags/alana'
p2283
I01
sS'/tags/fetishes'
p2284
I01
sS'/tags/limo'
p2285
I01
sS'/tags/barely'
p2286
I01
sS'/tags/gay-yummytwinks'
p2287
I01
sS'/tags/mosnter-cock'
p2288
I01
sS'/tags/clitrubbing'
p2289
I01
sS'/tags/lima'
p2290
I01
sS'/tags/monica'
p2291
I01
sS'/tags/gay-webcam'
p2292
I01
sS'/tags/presley'
p2293
I01
sS'/tags/holly'
p2294
I01
sS'/tags/pawn'
p2295
I01
sS'/tags/bigboobies'
p2296
I01
sS'/tags/preggers'
p2297
I01
sS'/tags/milfs'
p2298
I01
sS'/tags/studiojalif'
p2299
I01
sS'/tags/concha'
p2300
I01
sS'/tags/thighs'
p2301
I01
sS'/tags/stuffed'
p2302
I01
sS'/tags/amadoras'
p2303
I01
sS'/tags/sucker'
p2304
I01
sS'/tags/pissing'
p2305
I01
sS'/tags/sheer'
p2306
I01
sS'/tags/lesbian-orgy'
p2307
I01
sS'/tags/whooty'
p2308
I01
sS'/tags/gay-menhardatwork'
p2309
I01
sS'/tags/tera'
p2310
I01
sS'/tags/starlets'
p2311
I01
sS'/tags/therealworkout'
p2312
I01
sS'/tags/sucked'
p2313
I01
sS'/tags/roommate'
p2314
I01
sS'/tags/gay-boysxtra'
p2315
I01
sS'/tags/live-show'
p2316
I01
sS'/tags/thigh'
p2317
I01
sS'/tags/medic'
p2318
I01
sS'/tags/putas'
p2319
I01
sS'/tags/glasses'
p2320
I01
sS'/tags/twitcam'
p2321
I01
sS'/tags/primo'
p2322
I01
sS'/tags/playrole'
p2323
I01
sS'/tags/wives'
p2324
I01
sS'/tags/gay-twink'
p2325
I01
sS'/tags/wetandmessy'
p2326
I01
sS'/tags/maturbation'
p2327
I01
sS'/tags/dp'
p2328
I01
sS'/tags/plays'
p2329
I01
sS'/tags/ohamateur'
p2330
I01
sS'/tags/prima'
p2331
I01
sS'/tags/fvt'
p2332
I01
sS'/tags/clip'
p2333
I01
sS'/tags/do'
p2334
I01
sS'/tags/nymph'
p2335
I01
sS'/tags/clit'
p2336
I01
sS'/tags/fuckedupfacials'
p2337
I01
sS'/tags/floor'
p2338
I01
sS'/tags/da'
p2339
I01
sS'/tags/casting'
p2340
I01
sS'/tags/deeply'
p2341
I01
sS'/tags/screwing'
p2342
I01
sS'/tags/titties'
p2343
I01
sS'/tags/busty'
p2344
I01
sS'/tags/prodomme'
p2345
I01
sS'/tags/waitress'
p2346
I01
sS'/tags/muscle-gay'
p2347
I01
sS'/tags/grandma'
p2348
I01
sS'/tags/yahoo'
p2349
I01
sS'/tags/gang'
p2350
I01
sS'/tags/aumento'
p2351
I01
sS'/tags/carrera'
p2352
I01
sS'/tags/exotic'
p2353
I01
sS'/tags/amigas'
p2354
I01
sS'/tags/touch'
p2355
I01
sS'/tags/brutalasia'
p2356
I01
sS'/tags/beauty'
p2357
I01
sS'/tags/female'
p2358
I01
sS'/tags/japanmilfs'
p2359
I01
sS'/tags/renee'
p2360
I01
sS'/tags/bigtit'
p2361
I01
sS'/tags/paige'
p2362
I01
sS'/tags/culito'
p2363
I01
sS'/tags/colegial'
p2364
I01
sS'/tags/camshow'
p2365
I01
sS'/tags/amacontent'
p2366
I01
sS'/tags/ivanas'
p2367
I01
sS'/tags/selena'
p2368
I01
sS'/tags/wam'
p2369
I01
sS'/tags/extremely'
p2370
I01
sS'/tags/gaylatinopass'
p2371
I01
sS'/tags/blackjunglebooty'
p2372
I01
sS'/tags/facialcumshot'
p2373
I01
sS'/tags/submit-my-bitch'
p2374
I01
sS'/tags/transsexuals'
p2375
I01
sS'/tags/vidal'
p2376
I01
sS'/tags/gay-bathous'
p2377
I01
sS'/tags/casa'
p2378
I01
sS'/tags/booty'
p2379
I01
sS'/tags/garage'
p2380
I01
sS'/tags/seksi'
p2381
I01
sS'/tags/fleshlight'
p2382
I01
sS'/tags/reality'
p2383
I01
sS'/tags/silicone'
p2384
I01
sS'/tags/gagg'
p2385
I01
sS'/tags/cuckhold'
p2386
I01
sS'/tags/king'
p2387
I01
sS'/tags/european'
p2388
I01
sS'/tags/sex-toys'
p2389
I01
sS'/tags/paes'
p2390
I01
sS'/tags/pleasuring'
p2391
I01
sS'/tags/mayara'
p2392
I01
sS'/tags/mindy'
p2393
I01
sS'/tags/realgayvids'
p2394
I01
sS'/tags/price'
p2395
I01
sS'/tags/preggy'
p2396
I01
sS'/tags/bbw'
p2397
I01
sS'/tags/brazzers'
p2398
I01
sS'/tags/carioca'
p2399
I01
sS'/tags/husband'
p2400
I01
sS'/tags/pornostatik'
p2401
I01
sS'/tags/girlfucksguy'
p2402
I01
sS'/tags/ring'
p2403
I01
sS'/tags/assinpublic'
p2404
I01
sS'/tags/bunduda'
p2405
I01
sS'/tags/pornostatic'
p2406
I01
sS'/tags/lela'
p2407
I01
sS'/tags/gay-boykakke'
p2408
I01
sS'/tags/seduced'
p2409
I01
sS'/tags/sex-tape'
p2410
I01
sS'/tags/voyeurism'
p2411
I01
sS'/tags/preggo'
p2412
I01
sS'/tags/softcore'
p2413
I01
sS'/tags/puffynips'
p2414
I01
sS'/tags/drool'
p2415
I01
sS'/tags/enjoying'
p2416
I01
sS'/tags/swinger'
p2417
I01
sS'/tags/from-behind'
p2418
I01
sS'/tags/satin'
p2419
I01
sS'/tags/vs'
p2420
I01
sS'/tags/machines'
p2421
I01
sS'/tags/amador'
p2422
I01
sS'/tags/hazegay'
p2423
I01
sS'/tags/virginity'
p2424
I01
sS'/tags/japan-schoolgirls'
p2425
I01
sS'/tags/massage'
p2426
I01
sS'/tags/oldman'
p2427
I01
sS'/tags/cordoba'
p2428
I01
sS'/tags/gay-english'
p2429
I01
sS'/tags/telugu'
p2430
I01
sS'/tags/prude'
p2431
I01
sS'/tags/puuko'
p2432
I01
sS'/tags/fest'
p2433
I01
sS'/tags/realamateur'
p2434
I01
sS'/tags/spank'
p2435
I01
sS'/tags/wood'
p2436
I01
sS'/tags/prazer'
p2437
I01
sS'/tags/masturbating'
p2438
I01
sS'/tags/cocksucking'
p2439
I01
sS'/tags/tanlines'
p2440
I01
sS'/tags/gay-european'
p2441
I01
sS'/tags/dana'
p2442
I01
sS'/tags/cum-ass'
p2443
I01
sS'/tags/freak'
p2444
I01
sS'/tags/rhodes'
p2445
I01
sS'/tags/dani'
p2446
I01
sS'/tags/facesitting'
p2447
I01
sS'/tags/cuminass'
p2448
I01
sS'/tags/truth'
p2449
I01
sS'/tags/bubblebutt'
p2450
I01
sS'/tags/algerie'
p2451
I01
sS'/tags/sadie'
p2452
I01
sS'/tags/loving'
p2453
I01
sS'/tags/lince'
p2454
I01
sS'/tags/swedish'
p2455
I01
sS'/tags/janese'
p2456
I01
sS'/tags/paki'
p2457
I01
sS'/tags/bangkok'
p2458
I01
sS'/tags/sabrina'
p2459
I01
sS'/tags/morgan'
p2460
I01
sS'/tags/brand'
p2461
I01
sS'/tags/gay-urbanbritish'
p2462
I01
sS'/tags/gay-urban'
p2463
I01
sS'/tags/older'
p2464
I01
sS'/tags/muffdiving'
p2465
I01
sS'/tags/bigtits'
p2466
I01
sS'/tags/cocksucker'
p2467
I01
sS'/tags/sydnee'
p2468
I01
sS'/tags/true'
p2469
I01
sS'/tags/teabagging'
p2470
I01
sS'/tags/azz'
p2471
I01
sS'/tags/nice-ass'
p2472
I01
sS'/tags/vomit'
p2473
I01
sS'/tags/hayes'
p2474
I01
sS'/tags/spunk'
p2475
I01
sS'/tags/large'
p2476
I01
sS'/tags/spread-legs'
p2477
I01
sS'/tags/pummeled'
p2478
I01
sS'/tags/michael'
p2479
I01
sS'/tags/laurence'
p2480
I01
sS'/tags/daniella'
p2481
I01
sS'/tags/tatoo'
p2482
I01
sS'/tags/chambers'
p2483
I01
sS'/tags/toilet'
p2484
I01
sS'/tags/expecting'
p2485
I01
sS'/tags/haired'
p2486
I01
sS'/tags/shaved-pussy'
p2487
I01
sS'/tags/strapondildo'
p2488
I01
sS'/tags/halston'
p2489
I01
sS'/tags/wedding'
p2490
I01
sS'/tags/glamourous'
p2491
I01
sS'/tags/transsexual'
p2492
I01
sS'/tags/fetis'
p2493
I01
sS'/tags/deviant'
p2494
I01
sS'/tags/xvideosonline'
p2495
I01
sS'/tags/mastrubation'
p2496
I01
sS'/tags/porn-star'
p2497
I01
sS'/tags/random'
p2498
I01
sS'/tags/mouthjob'
p2499
I01
sS'/tags/soft'
p2500
I01
sS'/tags/toys'
p2501
I01
sS'/tags/gay-emobf'
p2502
I01
sS'/tags/deponca'
p2503
I01
sS'/tags/naomi'
p2504
I01
sS'/tags/gay-oral'
p2505
I01
sS'/tags/stroking'
p2506
I01
sS'/tags/spy'
p2507
I01
sS'/tags/porn-henati'
p2508
I01
sS'/tags/sofa'
p2509
I01
sS'/tags/college-teens'
p2510
I01
sS'/tags/gay-masked'
p2511
I01
sS'/tags/gay-big'
p2512
I01
sS'/tags/chris'
p2513
I01
sS'/tags/funny'
p2514
I01
sS'/tags/fraternity'
p2515
I01
sS'/tags/lovers'
p2516
I01
sS'/tags/awesome'
p2517
I01
sS'/tags/bitoni'
p2518
I01
sS'/tags/casualsex'
p2519
I01
sS'/tags/boceta'
p2520
I01
sS'/tags/babysitter'
p2521
I01
sS'/tags/realbangbook'
p2522
I01
sS'/tags/roxy'
p2523
I01
sS'/tags/cum-swapping'
p2524
I01
sS'/tags/hookers'
p2525
I01
sS'/tags/stage'
p2526
I01
sS'/tags/foursome'
p2527
I01
sS'/tags/stretched'
p2528
I01
sS'/tags/sheridan'
p2529
I01
sS'/tags/gay-bathroom'
p2530
I01
sS'/tags/exame'
p2531
I01
sS'/tags/debut'
p2532
I01
sS'/tags/buttplug'
p2533
I01
sS'/tags/making'
p2534
I01
sS'/tags/japaneseslurp'
p2535
I01
sS'/tags/christmas'
p2536
I01
sS'/tags/mature'
p2537
I01
sS'/tags/cellphone'
p2538
I01
sS'/tags/water'
p2539
I01
sS'/tags/doggiestyle'
p2540
I01
sS'/tags/venezolanas'
p2541
I01
sS'/tags/nakededsquirting'
p2542
I01
sS'/tags/rawpapi'
p2543
I01
sS'/tags/bi'
p2544
I01
sS'/tags/fallacio'
p2545
I01
sS'/tags/lana'
p2546
I01
sS'/tags/twococks'
p2547
I01
sS'/tags/chile'
p2548
I01
sS'/tags/lane'
p2549
I01
sS'/tags/flogging'
p2550
I01
sS'/tags/incredibly'
p2551
I01
sS'/tags/gracie'
p2552
I01
sS'/tags/oso'
p2553
I01
sS'/tags/gay-alphamalefuckers'
p2554
I01
sS'/tags/rae'
p2555
I01
sS'/tags/tribute'
p2556
I01
sS'/tags/girlboy'
p2557
I01
sS'/tags/assholefucking'
p2558
I01
sS'/tags/egypt'
p2559
I01
sS'/tags/ex-girlfriend'
p2560
I01
sS'/tags/podrywaczki'
p2561
I01
sS'/tags/cumfacial'
p2562
I01
sS'/tags/spying'
p2563
I01
sS'/tags/youngteen'
p2564
I01
sS'/tags/funk'
p2565
I01
sS'/tags/jackie'
p2566
I01
sS'/tags/oskar'
p2567
I01
sS'/tags/piercedclit'
p2568
I01
sS'/tags/hilton'
p2569
I01
sS'/tags/montada'
p2570
I01
sS'/tags/dagfs'
p2571
I01
sS'/tags/mybrothershotfriend'
p2572
I01
sS'/tags/reis'
p2573
I01
sS'/tags/chocolate'
p2574
I01
sS'/tags/eyeglasses'
p2575
I01
sS'/tags/can'
p2576
I01
sS'/tags/gay-bothersbf'
p2577
I01
sS'/tags/cap'
p2578
I01
sS'/tags/personal'
p2579
I01
sS'/tags/car'
p2580
I01
sS'/tags/sarah'
p2581
I01
sS'/tags/cat'
p2582
I01
sS'/tags/porca'
p2583
I01
sS'/tags/juggs'
p2584
I01
sS'/tags/sex-toy'
p2585
I01
sS'/tags/train'
p2586
I01
sS'/tags/santa'
p2587
I01
sS'/tags/girlfriends'
p2588
I01
sS'/tags/dicksucker'
p2589
I01
sS'/tags/crossdressing'
p2590
I01
sS'/tags/just'
p2591
I01
sS'/tags/veggie'
p2592
I01
sS'/tags/pute'
p2593
I01
sS'/tags/climaxed'
p2594
I01
sS'/tags/looking'
p2595
I01
sS'/tags/arse'
p2596
I01
sS'/tags/puta'
p2597
I01
sS'/tags/ballslicking'
p2598
I01
sS'/tags/tasha'
p2599
I01
sS'/tags/skank'
p2600
I01
sS'/tags/breedmeraw'
p2601
I01
sS'/tags/kane'
p2602
I01
sS'/tags/gay-boyextra'
p2603
I01
sS'/tags/camera'
p2604
I01
sS'/tags/worldwide'
p2605
I01
sS'/tags/gay-mature'
p2606
I01
sS'/tags/gay-barebacktwink'
p2607
I01
sS'/tags/real-slut-party'
p2608
I01
sS'/tags/sleepfuck'
p2609
I01
sS'/tags/anorectic'
p2610
I01
sS'/tags/luv'
p2611
I01
sS'/tags/baxter'
p2612
I01
sS'/tags/nalgas'
p2613
I01
sS'/tags/boygirl'
p2614
I01
sS'/tags/shyla'
p2615
I01
sS'/tags/sauna'
p2616
I01
sS'/tags/bukkakeload'
p2617
I01
sS'/tags/urine'
p2618
I01
sS'/tags/sissy'
p2619
I01
sS'/tags/peach'
p2620
I01
sS'/tags/anastasia'
p2621
I01
sS'/tags/20inch'
p2622
I01
sS'/tags/threeosme'
p2623
I01
sS'/tags/backdoor'
p2624
I01
sS'/tags/gothazed'
p2625
I01
sS'/tags/onenightstand'
p2626
I01
sS'/tags/moreninha'
p2627
I01
sS'/tags/milf-cougar'
p2628
I01
sS'/tags/asia'
p2629
I01
sS'/tags/who'
p2630
I01
sS'/tags/her'
p2631
I01
sS'/tags/monster-cock'
p2632
I01
sS'/tags/light'
p2633
I01
sS'/tags/uncut'
p2634
I01
sS'/tags/titjob'
p2635
I01
sS'/tags/electro'
p2636
I01
sS'/tags/whitecurvyasses'
p2637
I01
sS'/tags/ellis'
p2638
I01
sS'/tags/pussylips'
p2639
I01
sS'/tags/blojwob'
p2640
I01
sS'/tags/doctor-adventures'
p2641
I01
sS'/tags/lin'
p2642
I01
sS'/tags/infiel'
p2643
I01
sS'/tags/gay-tattooed'
p2644
I01
sS'/tags/trannies'
p2645
I01
sS'/tags/peeing'
p2646
I01
sS'/tags/dancando'
p2647
I01
sS'/tags/milk'
p2648
I01
sS'/tags/initiations'
p2649
I01
sS'/tags/lesbi'
p2650
I01
sS'/tags/cockosaurus'
p2651
I01
sS'/tags/tasttwink'
p2652
I01
sS'/tags/teaching'
p2653
I01
sS'/tags/liz'
p2654
I01
sS'/tags/trinity'
p2655
I01
sS'/tags/fiesta'
p2656
I01
sS'/tags/suckingdick'
p2657
I01
sS'/tags/cfnm'
p2658
I01
sS'/tags/raw'
p2659
I01
sS'/tags/buxom'
p2660
I01
sS'/tags/realmomexposed'
p2661
I01
sS'/tags/rap'
p2662
I01
sS'/tags/bate'
p2663
I01
sS'/tags/flashes'
p2664
I01
sS'/tags/ray'
p2665
I01
sS'/tags/gay-fetish'
p2666
I01
sS'/tags/indian'
p2667
I01
sS'/tags/surprise'
p2668
I01
sS'/tags/pete'
p2669
I01
sS'/tags/picture'
p2670
I01
sS'/tags/throat-fuck'
p2671
I01
sS'/tags/caliente'
p2672
I01
sS'/tags/blonde'
p2673
I01
sS'/tags/rai'
p2674
I01
sS'/tags/cova'
p2675
I01
sS'/tags/mouth'
p2676
I01
sS'/tags/milan'
p2677
I01
sS'/tags/eusexvideos'
p2678
I01
sS'/tags/gay-videos'
p2679
I01
sS'/tags/their'
p2680
I01
sS'/tags/first-timer'
p2681
I01
sS'/tags/lucky'
p2682
I01
sS'/tags/take'
p2683
I01
sS'/tags/arab'
p2684
I01
sS'/tags/triple'
p2685
I01
sS'/tags/pussyrubbing'
p2686
I01
sS'/tags/carly'
p2687
I01
sS'/tags/collegegirls'
p2688
I01
sS'/tags/70s'
p2689
I01
sS'/tags/cameraman'
p2690
I01
sS'/tags/toes'
p2691
I01
sS'/tags/dyke'
p2692
I01
sS'/tags/gay-cam'
p2693
I01
sS'/tags/hooker'
p2694
I01
sS'/tags/vipefamose'
p2695
I01
sS'/tags/del'
p2696
I01
sS'/tags/mouthfucking'
p2697
I01
sS'/tags/nylons'
p2698
I01
sS'/tags/cyberchat'
p2699
I01
sS'/tags/pimpelement'
p2700
I01
sS'/tags/dee'
p2701
I01
sS'/tags/jerk'
p2702
I01
sS'/tags/fullsuck'
p2703
I01
sS'/tags/hottie'
p2704
I01
sS'/tags/small-tits'
p2705
I01
sS'/tags/assfingering'
p2706
I01
sS'/tags/costume'
p2707
I01
sS'/tags/candace'
p2708
I01
sS'/tags/what'
p2709
I01
sS'/tags/carmella'
p2710
I01
sS'/tags/test'
p2711
I01
sS'/tags/castings'
p2712
I01
sS'/tags/2'
p2713
I01
sS'/tags/massagebait'
p2714
I01
sS'/tags/1'
p2715
I01
sS'/tags/6'
p2716
I01
sS'/tags/7'
p2717
I01
sS'/tags/really'
p2718
I01
sS'/tags/5'
p2719
I01
sS'/tags/doggysytle'
p2720
I01
sS'/tags/blonds'
p2721
I01
sS'/tags/8'
p2722
I01
sS'/tags/9'
p2723
I01
sS'/tags/japanese'
p2724
I01
sS'/tags/pooltable'
p2725
I01
sS'/tags/rubberdoll'
p2726
I01
sS'/tags/sindee'
p2727
I01
sS'/tags/rimming'
p2728
I01
sS'/tags/moreno'
p2729
I01
sS'/tags/gangsta'
p2730
I01
sS'/tags/prison'
p2731
I01
sS'/tags/pornpros'
p2732
I01
sS'/tags/reversed'
p2733
I01
sS'/tags/ejac'
p2734
I01
sS'/tags/angela'
p2735
I01
sS'/tags/french'
p2736
I01
sS'/tags/show'
p2737
I01
sS'/tags/hillary'
p2738
I01
sS'/tags/natalie'
p2739
I01
sS'/tags/twosome'
p2740
I01
sS'/tags/sophie'
p2741
I01
sS'/tags/natalia'
p2742
I01
sS'/tags/angels'
p2743
I01
sS'/tags/famosas'
p2744
I01
sS'/tags/crueltyparty'
p2745
I01
sS'/tags/firsttimers'
p2746
I01
sS'/tags/pakistani'
p2747
I01
sS'/tags/indoor'
p2748
I01
sS'/tags/mariah'
p2749
I01
sS'/tags/slow'
p2750
I01
sS'/tags/pussypounding'
p2751
I01
sS'/tags/urbanbrits'
p2752
I01
sS'/tags/japonesa'
p2753
I01
sS'/tags/aurora'
p2754
I01
sS'/tags/argenta'
p2755
I01
sS'/tags/creampie'
p2756
I01
sS'/tags/x'
p2757
I01
sS'/tags/y'
p2758
I01
sS'/tags/india'
p2759
I01
sS'/tags/b'
p2760
I01
sS'/tags/inter'
p2761
I01
sS'/tags/a'
p2762
I01
sS'/tags/f'
p2763
I01
sS'/tags/g'
p2764
I01
sS'/tags/gay-gotbroke'
p2765
I01
sS'/tags/e'
p2766
I01
sS'/tags/j'
p2767
I01
sS'/tags/globeboyz'
p2768
I01
sS'/tags/h'
p2769
I01
sS'/tags/tback'
p2770
I01
sS'/tags/n'
p2771
I01
sS'/tags/vouyer'
p2772
I01
sS'/tags/bangextreme'
p2773
I01
sS'/tags/actress'
p2774
I01
sS'/tags/hugeass'
p2775
I01
sS'/tags/footlicking'
p2776
I01
sS'/tags/gay-public'
p2777
I01
sS'/tags/homealone'
p2778
I01
sS'/tags/goddess'
p2779
I01
sS'/tags/mom'
p2780
I01
sS'/tags/tricked'
p2781
I01
sS'/tags/kissing'
p2782
I01
sS'/tags/oral-sex'
p2783
I01
sS'/tags/office-girls'
p2784
I01
sS'/tags/wonderful'
p2785
I01
sS'/tags/livewebcams'
p2786
I01
sS'/tags/purple'
p2787
I01
sS'/tags/glamour'
p2788
I01
sS'/tags/london'
p2789
I01
sS'/tags/cara'
p2790
I01
sS'/tags/rubias'
p2791
I01
sS'/tags/gay-collegebfphysical'
p2792
I01
sS'/tags/hidden'
p2793
I01
sS'/tags/definition'
p2794
I01
sS'/tags/rita'
p2795
I01
sS'/tags/monique'
p2796
I01
sS'/tags/nudism'
p2797
I01
sS'/tags/clitoris'
p2798
I01
sS'/tags/endless'
p2799
I01
sS'/tags/gay-hunk'
p2800
I01
sS'/tags/lezzy'
p2801
I01
sS'/tags/a2m'
p2802
I01
sS'/tags/brokestraightdude'
p2803
I01
sS'/tags/dont'
p2804
I01
sS'/tags/tittyfuck'
p2805
I01
sS'/tags/pure18'
p2806
I01
sS'/tags/public-sex'
p2807
I01
sS'/tags/mrs'
p2808
I01
sS'/tags/tyra'
p2809
I01
sS'/tags/lawrence'
p2810
I01
sS'/tags/luna'
p2811
I01
sS'/tags/bukakkeboy'
p2812
I01
sS'/tags/masterbating'
p2813
I01
sS'/tags/foxy'
p2814
I01
sS'/tags/w'
p2815
I01
sS'/tags/ethnic'
p2816
I01
sS'/tags/nerd'
p2817
I01
sS'/tags/t'
p2818
I01
sS'/tags/mamma'
p2819
I01
sS'/tags/dancing'
p2820
I01
sS'/tags/savanna'
p2821
I01
sS'/tags/gayhaze'
p2822
I01
sS'/tags/barelylegal'
p2823
I01
sS'/tags/want'
p2824
I01
sS'/tags/wank'
p2825
I01
sS'/tags/blowbang'
p2826
I01
sS'/tags/rodrigues'
p2827
I01
sS'/tags/nostringsattached'
p2828
I01
sS'/tags/ftv'
p2829
I01
sS'/tags/missionary'
p2830
I01
sS'/tags/chupadas'
p2831
I01
sS'/tags/cameltoe'
p2832
I01
sS'/tags/aff'
p2833
I01
sS'/tags/oyeloca'
p2834
I01
sS'/tags/boyfriend'
p2835
I01
sS'/tags/gay-fisting'
p2836
I01
sS'/tags/teeniebff'
p2837
I01
sS'/tags/tit'
p2838
I01
sS'/tags/evelyn'
p2839
I01
sS'/tags/ex-gf'
p2840
I01
sS'/tags/iamamarriedman'
p2841
I01
sS'/tags/gay-easternbf'
p2842
I01
sS'/tags/crazy'
p2843
I01
sS'/tags/gay-baitbuddies'
p2844
I01
sS'/tags/francais'
p2845
I01
sS'/tags/msn'
p2846
I01
sS'/tags/enjoy'
p2847
I01
sS'/tags/prostitution'
p2848
I01
sS'/tags/esposa'
p2849
I01
sS'/tags/spain'
p2850
I01
sS'/tags/tie'
p2851
I01
sS'/tags/partygames'
p2852
I01
sS'/tags/julia'
p2853
I01
sS'/tags/tia'
p2854
I01
sS'/tags/gayanal'
p2855
I01
sS'/tags/polish'
p2856
I01
sS'/tags/carla'
p2857
I01
sS'/tags/mff'
p2858
I01
sS'/tags/thisgirlsucks'
p2859
I01
sS'/tags/ginger'
p2860
I01
sS'/tags/angel'
p2861
I01
sS'/tags/jazmine'
p2862
I01
sS'/tags/exgirlfriend'
p2863
I01
sS'/tags/sadomaso'
p2864
I01
sS'/tags/exgirlfrieng'
p2865
I01
sS'/tags/pron'
p2866
I01
sS'/tags/trans'
p2867
I01
sS'/tags/analfucking'
p2868
I01
sS'/tags/delicious'
p2869
I01
sS'/tags/pros'
p2870
I01
sS'/tags/pervsonpatrol'
p2871
I01
sS'/tags/hendrix'
p2872
I01
sS'/tags/chasey'
p2873
I01
sS'/tags/gay-bukkake'
p2874
I01
sS'/tags/tesuda'
p2875
I01
sS'/tags/brazilions'
p2876
I01
sS'/tags/paloma'
p2877
I01
sS'/tags/hotties'
p2878
I01
sS'/tags/dominate'
p2879
I01
sS'/tags/lesbian'
p2880
I01
sS'/tags/submissive'
p2881
I01
sS'/tags/suckdick'
p2882
I01
sS'/tags/art'
p2883
I01
sS'/tags/lynn'
p2884
I01
sS'/tags/nudist'
p2885
I01
sS'/tags/ohthatsbig'
p2886
I01
sS'/tags/flash'
p2887
I01
sS'/tags/crissy'
p2888
I01
sS'/tags/gold'
p2889
I01
sS'/tags/christine'
p2890
I01
sS'/tags/shaggy'
p2891
I01
sS'/tags/mallu'
p2892
I01
sS'/tags/youngandold'
p2893
I01
sS'/tags/tattooed'
p2894
I01
sS'/tags/gay-schoolboy'
p2895
I01
sS'/tags/i'
p2896
I01
sS'/tags/gaymassage'
p2897
I01
sS'/tags/streaming'
p2898
I01
sS'/tags/ninfeta'
p2899
I01
sS'/tags/august'
p2900
I01
sS'/tags/moon'
p2901
I01
sS'/tags/ballbusting'
p2902
I01
sS'/tags/o'
p2903
I01
sS'/tags/jail'
p2904
I01
sS'/tags/fff'
p2905
I01
sS'/tags/pantera'
p2906
I01
sS'/tags/masseur'
p2907
I01
sS'/tags/buttfucking'
p2908
I01
sS'/tags/francaise'
p2909
I01
sS'/tags/nina'
p2910
I01
sS'/tags/idol69'
p2911
I01
sS'/tags/m'
p2912
I01
sS'/tags/blackbooty'
p2913
I01
sS'/tags/blackcocks'
p2914
I01
sS'/tags/soares'
p2915
I01
sS'/tags/cumlicking'
p2916
I01
sS'/tags/pound'
p2917
I01
sS'/tags/harder'
p2918
I01
sS'/tags/girlsex'
p2919
I01
sS'/tags/flame'
p2920
I01
sS'/tags/messy'
p2921
I01
sS'/tags/brazilians'
p2922
I01
sS'/tags/bushes'
p2923
I01
sS'/tags/roughsex'
p2924
I01
sS'/tags/gives'
p2925
I01
sS'/tags/sage'
p2926
I01
sS'/tags/gay-gangbang'
p2927
I01
sS'/tags/rola'
p2928
I01
sS'/tags/its'
p2929
I01
sS'/tags/ivana'
p2930
I01
sS'/tags/hairypussy'
p2931
I01
sS'/tags/fabulous'
p2932
I01
sS'/tags/gay-bulldogpit'
p2933
I01
sS'/tags/lyla'
p2934
I01
sS'/tags/slammed'
p2935
I01
sS'/tags/bangteamfive'
p2936
I01
sS'/tags/fuckteamfive'
p2937
I01
sS'/tags/paidforsex'
p2938
I01
sS'/tags/twerk'
p2939
I01
sS'/tags/ass-to-mouth'
p2940
I01
sS'/tags/rayne'
p2941
I01
sS'/tags/abany'
p2942
I01
sS'/tags/mexican'
p2943
I01
sS'/tags/girl-next-door'
p2944
I01
sS'/tags/oiled-up'
p2945
I01
sS'/tags/marriedbf'
p2946
I01
sS'/tags/redhead'
p2947
I01
sS'/tags/harcore'
p2948
I01
sS'/tags/red'
p2949
I01
sS'/tags/cuties'
p2950
I01
sS'/tags/straightbait'
p2951
I01
sS'/tags/alexandra'
p2952
I01
sS'/tags/alexandre'
p2953
I01
sS'/tags/quickie'
p2954
I01
sS'/tags/like'
p2955
I01
sS'/tags/elder'
p2956
I01
sS'/tags/19yo'
p2957
I01
sS'/tags/bra'
p2958
I01
sS'/tags/buceta'
p2959
I01
sS'/tags/wells'
p2960
I01
sS'/tags/gay-cute'
p2961
I01
sS'/tags/massagevictim'
p2962
I01
sS'/tags/piercednipple'
p2963
I01
sS'/tags/blows'
p2964
I01
sS'/tags/filipina'
p2965
I01
sS'/tags/gagging'
p2966
I01
sS'/tags/filipino'
p2967
I01
sS'/tags/lesbians'
p2968
I01
sS'/tags/linda'
p2969
I01
sS'/tags/brasilian'
p2970
I01
sS'/tags/hugeboobs'
p2971
I01
sS'/tags/bigbutt'
p2972
I01
sS'/tags/sloppy'
p2973
I01
sS'/tags/bright'
p2974
I01
sS'/tags/gay-rubhim'
p2975
I01
sS'/tags/cumming'
p2976
I01
sS'/tags/vibe'
p2977
I01
sS'/tags/pussyfucking'
p2978
I01
sS'/tags/gay-britainboyz'
p2979
I01
sS'/tags/boys'
p2980
I01
sS'/tags/camara'
p2981
I01
sS'/tags/restroom'
p2982
I01
sS'/tags/group'
p2983
I01
sS'/tags/gay-tricked'
p2984
I01
sS'/tags/sunset'
p2985
I01
sS'/tags/micro'
p2986
I01
sS'/tags/silvia'
p2987
I01
sS'/tags/sex-in-public'
p2988
I01
sS'/tags/cumdisgrace'
p2989
I01
sS'/tags/erection'
p2990
I01
sS'/tags/dripping'
p2991
I01
sS'/tags/caro'
p2992
I01
sS'/tags/beatiful'
p2993
I01
sS'/tags/riley'
p2994
I01
sS'/tags/musicvideo'
p2995
I01
sS'/tags/swede'
p2996
I01
sS'/tags/gay-boyfeast'
p2997
I01
sS'/tags/gaygroupsex'
p2998
I01
sS'/tags/culos'
p2999
I01
sS'/tags/fu'
p3000
I01
sS'/tags/fistfuck'
p3001
I01
sS'/tags/rider'
p3002
I01
sS'/tags/absolutly'
p3003
I01
sS'/tags/webc'
p3004
I01
sS'/tags/lesbiangfexposed'
p3005
I01
sS'/tags/erections'
p3006
I01
sS'/tags/sports'
p3007
I01
sS'/tags/cumplay'
p3008
I01
sS'/tags/fe'
p3009
I01
sS'/tags/glamorous'
p3010
I01
sS'/tags/kagney'
p3011
I01
sS'/tags/gayfuck'
p3012
I01
sS'/tags/madchen'
p3013
I01
sS'/tags/culonas'
p3014
I01
sS'/tags/pompino'
p3015
I01
sS'/tags/femaledomination'
p3016
I01
sS'/tags/vagabunda'
p3017
I01
sS'/tags/summers'
p3018
I01
sS'/tags/wetbutt'
p3019
I01
sS'/tags/girlsnextdoor'
p3020
I01
sS'/tags/peitos'
p3021
I01
sS'/tags/travesti'
p3022
I01
sS'/tags/violent'
p3023
I01
sS'/tags/corazondeperro'
p3024
I01
sS'/tags/tall'
p3025
I01
sS'/tags/thughunter'
p3026
I01
sS'/tags/fight'
p3027
I01
sS'/tags/boygusher'
p3028
I01
sS'/tags/huge-tits'
p3029
I01
sS'/tags/dru'
p3030
I01
sS'/tags/gayteen'
p3031
I01
sS'/tags/skinny'
p3032
I01
sS'/tags/romanian'
p3033
I01
sS'/tags/soldgf'
p3034
I01
sS'/tags/faltoyano'
p3035
I01
sS'/tags/pusyfucking'
p3036
I01
sS'/tags/dykes'
p3037
I01
sS'/tags/style'
p3038
I01
sS'/tags/gymnast'
p3039
I01
sS'/tags/gay-assfuck'
p3040
I01
sS'/tags/benson'
p3041
I01
sS'/tags/wc'
p3042
I01
sS'/tags/sophia'
p3043
I01
sS'/tags/chick'
p3044
I01
sS'/tags/dong'
p3045
I01
sS'/tags/transvestite'
p3046
I01
sS'/tags/lesson'
p3047
I01
sS'/tags/chica'
p3048
I01
sS'/tags/pictures'
p3049
I01
sS'/tags/brasil'
p3050
I01
sS'/tags/brit'
p3051
I01
sS'/tags/gigante'
p3052
I01
sS'/tags/breasta'
p3053
I01
sS'/tags/tatiana'
p3054
I01
sS'/tags/celeb'
p3055
I01
sS'/tags/404'
p3056
I01
sS'/tags/sandy'
p3057
I01
sS'/tags/santos'
p3058
I01
sS'/tags/karter'
p3059
I01
sS'/tags/breasts'
p3060
I01
sS'/tags/film'
p3061
I01
sS'/tags/harlot'
p3062
I01
sS'/tags/ladyboys'
p3063
I01
sS'/tags/long-legs'
p3064
I01
sS'/tags/highheels'
p3065
I01
sS'/tags/cadillac'
p3066
I01
sS'/tags/derek'
p3067
I01
sS'/tags/miniskirt'
p3068
I01
sS'/tags/tesao'
p3069
I01
sS'/tags/pole'
p3070
I01
sS'/tags/spitting'
p3071
I01
sS'/tags/kiss'
p3072
I01
sS'/tags/gay-cum'
p3073
I01
sS'/tags/miss'
p3074
I01
sS'/tags/backroomfuckers'
p3075
I01
sS'/tags/fapping'
p3076
I01
sS'/tags/gaping'
p3077
I01
sS'/tags/hirsute'
p3078
I01
sS'/tags/bondage'
p3079
I01
sS'/tags/intense'
p3080
I01
sS'/tags/friend'
p3081
I01
sS'/tags/suckin'
p3082
I01
sS'/tags/talking'
p3083
I01
sS'/tags/penetration'
p3084
I01
sS'/tags/orgia'
p3085
I01
sS'/tags/donk'
p3086
I01
sS'/tags/hunter'
p3087
I01
sS'/tags/gayorgy'
p3088
I01
sS'/tags/nubiles'
p3089
I01
sS'/tags/sexvids'
p3090
I01
sS'/tags/skin'
p3091
I01
sS'/tags/bobs'
p3092
I01
sS'/tags/apartment'
p3093
I01
sS'/tags/eating'
p3094
I01
sS'/tags/jizzonmygf'
p3095
I01
sS'/tags/gay-bdsm'
p3096
I01
sS'/tags/college'
p3097
I01
sS'/tags/jovenes'
p3098
I01
sS'/tags/non-nude'
p3099
I01
sS'/tags/fuckeduphandjobs'
p3100
I01
sS'/tags/jayna'
p3101
I01
sS'/tags/gaycockworld'
p3102
I01
sS'/tags/pt'
p3103
I01
sS'/tags/gaystraight'
p3104
I01
sS'/tags/valentine'
p3105
I01
sS'/tags/teencash'
p3106
I01
sS'/tags/dildosucking'
p3107
I01
sS'/tags/valentina'
p3108
I01
sS'/tags/mexico'
p3109
I01
sS'/tags/lolita'
p3110
I01
sS'/tags/gay-20inch'
p3111
I01
sS'/tags/buttered'
p3112
I01
sS'/tags/outdoorsex'
p3113
I01
sS'/tags/flexing'
p3114
I01
sS'/tags/gay-boysextra'
p3115
I01
sS'/tags/paulo'
p3116
I01
sS'/tags/japavtube'
p3117
I01
sS'/tags/annette'
p3118
I01
sS'/tags/harper'
p3119
I01
sS'/tags/whip'
p3120
I01
sS'/tags/shower'
p3121
I01
sS'/tags/mendes'
p3122
I01
sS'/tags/having'
p3123
I01
sS'/tags/trannie'
p3124
I01
sS'/tags/catalina'
p3125
I01
sS'/tags/yummytwinks'
p3126
I01
sS'/tags/mendez'
p3127
I01
sS'/tags/gay-massagevictim'
p3128
I01
sS'/tags/brasileira'
p3129
I01
sS'/tags/ariel'
p3130
I01
sS'/tags/freshman'
p3131
I01
sS'/tags/foxx'
p3132
I01
sS'/tags/tennis'
p3133
I01
sS'/tags/outdoorjpn'
p3134
I01
sS'/tags/holmes'
p3135
I01
sS'/tags/tugjob'
p3136
I01
sS'/tags/blackgay'
p3137
I01
sS'/tags/veronica'
p3138
I01
sS'/tags/assdriven1'
p3139
I01
sS'/tags/huge'
p3140
I01
sS'/tags/gay-huge'
p3141
I01
sS'/tags/during'
p3142
I01
sS'/tags/homemovie'
p3143
I01
sS'/tags/04'
p3144
I01
sS'/tags/cocksuckers'
p3145
I01
sS'/tags/gay-alphamalesuckers'
p3146
I01
sS'/tags/gay-video'
p3147
I01
sS'/tags/mygayboss'
p3148
I01
sS'/tags/storyline'
p3149
I01
sS'/tags/lipstick'
p3150
I01
sS'/tags/hurt'
p3151
I01
sS'/tags/ridescock'
p3152
I01
sS'/tags/drunk'
p3153
I01
sS'/tags/cage'
p3154
I01
sS'/tags/gay-bareback'
p3155
I01
sS'/tags/maledom'
p3156
I01
sS'/tags/gloryhole'
p3157
I01
sS'/tags/pain'
p3158
I01
sS'/tags/doublepenetrations'
p3159
I01
sS'/tags/thorn'
p3160
I01
sS'/tags/gay-eastboys'
p3161
I01
sS'/tags/regina'
p3162
I01
sS'/tags/collegedudes'
p3163
I01
sS'/tags/addict'
p3164
I01
sS'/tags/gay-cock'
p3165
I01
sS'/tags/pervert'
p3166
I01
sS'/tags/jamaican'
p3167
I01
sS'/tags/nastydildostories'
p3168
I01
sS'/tags/cute'
p3169
I01
sS'/tags/mirror'
p3170
I01
sS'/tags/gay-dorm'
p3171
I01
sS'/tags/roleplaying'
p3172
I01
sS'/tags/gozada'
p3173
I01
sS'/tags/chloe'
p3174
I01
sS'/tags/topless'
p3175
I01
sS'/tags/brasileiro'
p3176
I01
sS'/tags/bukkakenow'
p3177
I01
sS'/tags/mujer'
p3178
I01
sS'/tags/threeway'
p3179
I01
sS'/tags/freeporn'
p3180
I01
sS'/tags/handy'
p3181
I01
sS'/tags/webcams'
p3182
I01
sS'/tags/hands'
p3183
I01
sS'/tags/pussy-fisting'
p3184
I01
sS'/tags/atm'
p3185
I01
sS'/tags/reagan'
p3186
I01
sS'/tags/gay-orgy'
p3187
I01
sS'/tags/analslut'
p3188
I01
sS'/tags/massive'
p3189
I01
sS'/tags/suruba'
p3190
I01
sS'/tags/caseras'
p3191
I01
sS'/tags/whores'
p3192
I01
sS'/tags/panties-off'
p3193
I01
sS'/tags/gays'
p3194
I01
sS'/tags/deepthroating'
p3195
I01
sS'/tags/mane'
p3196
I01
sS'/tags/hungry'
p3197
I01
sS'/tags/shavedcunt'
p3198
I01
sS'/tags/spit'
p3199
I01
sS'/tags/cumonpussy'
p3200
I01
sS'/tags/naughty'
p3201
I01
sS'/tags/young'
p3202
I01
sS'/tags/emosexposed'
p3203
I01
sS'/tags/cougars'
p3204
I01
sS'/tags/mutual'
p3205
I01
sS'/tags/fazendo'
p3206
I01
sS'/tags/suzie'
p3207
I01
sS'/tags/torment'
p3208
I01
sS'/tags/clothes-off'
p3209
I01
sS'/tags/pissfun'
p3210
I01
sS'/tags/realbustygf'
p3211
I01
sS'/tags/amanda'
p3212
I01
sS'/tags/big-booty'
p3213
I01
sS'/tags/sbbw'
p3214
I01
sS'/tags/sandwich'
p3215
I01
sS'/tags/jasmine'
p3216
I01
sS'/tags/gotbf'
p3217
I01
sS'/tags/exhibicionist'
p3218
I01
sS'/tags/teenporn'
p3219
I01
sS'/tags/share'
p3220
I01
sS'/tags/bathous'
p3221
I01
sS'/tags/hammerbf'
p3222
I01
sS'/tags/pornofotzen'
p3223
I01
sS'/tags/gay-latinosmooth'
p3224
I01
sS'/tags/pussyfucked'
p3225
I01
sS'/tags/blacks'
p3226
I01
sS'/tags/coed'
p3227
I01
sS'/tags/acrobat'
p3228
I01
sS'/tags/puking'
p3229
I01
sS'/tags/licked'
p3230
I01
sS'/tags/sport'
p3231
I01
sS'/tags/gay-chat'
p3232
I01
sS'/tags/threesome'
p3233
I01
sS'/tags/jav'
p3234
I01
sS'/tags/orgias'
p3235
I01
sS'/tags/jap'
p3236
I01
sS'/tags/sextape'
p3237
I01
sS'/tags/round'
p3238
I01
sS'/tags/gay-'
p3239
I01
sS'/tags/sexgame'
p3240
I01
sS'/tags/phatbutt'
p3241
I01
sS'/tags/slideshow'
p3242
I01
sS'/tags/misculos'
p3243
I01
sS'/tags/used'
p3244
I01
sS'/tags/gay-party'
p3245
I01
sS'/tags/enfiando'
p3246
I01
sS'/tags/assesinpublic'
p3247
I01
sS'/tags/gostoso'
p3248
I01
sS'/tags/street'
p3249
I01
sS'/tags/flicks'
p3250
I01
sS'/tags/sensitive'
p3251
I01
sS'/tags/muff-dive'
p3252
I01
sS'/tags/the'
p3253
I01
sS'/tags/homevideos'
p3254
I01
sS'/tags/beat'
p3255
I01
sS'/tags/allholes'
p3256
I01
sS'/tags/hungarian'
p3257
I01
sS'/tags/selfshot'
p3258
I01
sS'/tags/gay-fuck'
p3259
I01
sS'/tags/montenegro'
p3260
I01
sS'/tags/busty-babes'
p3261
I01
sS'/tags/seduce'
p3262
I01
sS'/tags/eve'
p3263
I01
sS'/tags/starlet'
p3264
I01
sS'/tags/at'
p3265
I01
sS'/tags/pornostars'
p3266
I01
sS'/tags/camgirls'
p3267
I01
sS'/tags/week'
p3268
I01
sS'/tags/based'
p3269
I01
sS'/tags/stripping'
p3270
I01
sS'/tags/flagra'
p3271
I01
sS'/tags/18yo'
p3272
I01
sS'/tags/phat'
p3273
I01
sS'/tags/sweet'
p3274
I01
sS'/tags/lily'
p3275
I01
sS'/tags/france'
p3276
I01
sS'/tags/olderwoman'
p3277
I01
sS'/tags/domina'
p3278
I01
sS'/tags/oreo'
p3279
I01
sS'/tags/prego'
p3280
I01
sS'/tags/smooth'
p3281
I01
sS'/tags/xanola'
p3282
I01
sS'/tags/jada'
p3283
I01
sS'/tags/please'
p3284
I01
sS'/tags/whitney'
p3285
I01
sS'/tags/jade'
p3286
I01
sS'/tags/gay-smoothlatins'
p3287
I01
sS'/tags/snatches'
p3288
I01
sS'/tags/gay-british'
p3289
I01
sS'/tags/profeessional'
p3290
I01
sS'/tags/cumload'
p3291
I01
sS'/tags/femdom'
p3292
I01
sS'/tags/perra'
p3293
I01
sS'/tags/training'
p3294
I01
sS'/tags/public-nudity'
p3295
I01
sS'/tags/cumbath'
p3296
I01
sS'/tags/humiliaton'
p3297
I01
sS'/tags/tokyobang'
p3298
I01
sS'/tags/loirinha'
p3299
I01
sS'/tags/mouthfucked'
p3300
I01
sS'/tags/styles'
p3301
I01
sS'/tags/screwed'
p3302
I01
sS'/tags/beautifull'
p3303
I01
sS'/tags/smoke'
p3304
I01
sS'/tags/realamateurs'
p3305
I01
sS'/tags/janeiro'
p3306
I01
sS'/tags/match'
p3307
I01
sS'/tags/scott'
p3308
I01
sS'/tags/joanna'
p3309
I01
sS'/tags/03'
p3310
I01
sS'/tags/smallboobs'
p3311
I01
sS'/tags/jenny'
p3312
I01
sS'/tags/braces'
p3313
I01
sS'/tags/candidman'
p3314
I01
sS'/tags/world'
p3315
I01
sS'/tags/alex'
p3316
I01
sS'/tags/cumjob'
p3317
I01
sS'/tags/compatible'
p3318
I01
sS'/tags/jenni'
p3319
I01
sS'/tags/lez'
p3320
I01
sS'/tags/fashionable'
p3321
I01
sS'/tags/revenge'
p3322
I01
sS'/tags/jenna'
p3323
I01
sS'/tags/toon'
p3324
I01
sS'/tags/men'
p3325
I01
sS'/tags/workout'
p3326
I01
sS'/tags/ripe'
p3327
I01
sS'/tags/julie'
p3328
I01
sS'/tags/pornostatica'
p3329
I01
sS'/tags/adorable'
p3330
I01
sS'/tags/laine'
p3331
I01
sS'/tags/west'
p3332
I01
sS'/tags/freaky'
p3333
I01
sS'/tags/cumglass'
p3334
I01
sS'/tags/public'
p3335
I01
sS'/tags/nalgotas'
p3336
I01
sS'/tags/claire'
p3337
I01
sS'/tags/pounded'
p3338
I01
sS'/tags/foot'
p3339
I01
sS'/tags/monroe'
p3340
I01
sS'/tags/publicsexjapan'
p3341
I01
sS'/tags/leche69'
p3342
I01
sS'/tags/megapussylips'
p3343
I01
sS'/tags/gay-toys'
p3344
I01
sS'/tags/analsex'
p3345
I01
sS'/tags/bears'
p3346
I01
sS'/tags/pussy-eating'
p3347
I01
sS'/tags/camrip'
p3348
I01
sS'/tags/outdoorjp'
p3349
I01
sS'/tags/storm'
p3350
I01
sS'/tags/underwear'
p3351
I01
sS'/tags/bundas'
p3352
I01
sS'/tags/filtyandfisting'
p3353
I01
sS'/tags/spooning'
p3354
I01
sS'/tags/rush'
p3355
I01
sS'/tags/divine'
p3356
I01
sS'/tags/raylene'
p3357
I01
sS'/tags/seios'
p3358
I01
sS'/tags/masturbation'
p3359
I01
sS'/tags/peruvian'
p3360
I01
sS'/tags/teens-like-it-big'
p3361
I01
sS'/tags/peru'
p3362
I01
sS'/tags/teenagers'
p3363
I01
sS'/tags/singer'
p3364
I01
sS'/tags/amia'
p3365
I01
sS'/tags/hugenaturals'
p3366
I01
sS'/tags/foottuggers'
p3367
I01
sS'/tags/gay-vibrator'
p3368
I01
sS'/tags/sw'
p3369
I01
sS'/tags/st'
p3370
I01
sS'/tags/blowing'
p3371
I01
sS'/tags/olderguy'
p3372
I01
sS'/tags/rubs'
p3373
I01
sS'/tags/so'
p3374
I01
sS'/tags/stocking'
p3375
I01
sS'/tags/private'
p3376
I01
sS'/tags/clothedfemalenakedman'
p3377
I01
sS'/tags/venezuela'
p3378
I01
sS'/tags/hotandmean'
p3379
I01
sS'/tags/gay-twinks'
p3380
I01
sS'/tags/se'
p3381
I01
sS'/tags/faketits'
p3382
I01
sS'/tags/amater'
p3383
I01
sS'/tags/bush'
p3384
I01
sS'/tags/brunettes'
p3385
I01
sS'/tags/gay-college'
p3386
I01
sS'/tags/gotbroke'
p3387
I01
sS'/tags/stream'
p3388
I01
sS'/tags/download'
p3389
I01
sS'/tags/putaria'
p3390
I01
sS'/tags/twitter'
p3391
I01
sS'/tags/horny'
p3392
I01
sS'/tags/tasty'
p3393
I01
sS'/tags/gatinha'
p3394
I01
sS'/tags/kross'
p3395
I01
sS'/tags/bigtitsboss'
p3396
I01
sS'/tags/creeps'
p3397
I01
sS'/tags/urbanbritish'
p3398
I01
sS'/tags/photo'
p3399
I01
sS'/tags/misters'
p3400
I01
sS'/tags/gay-homoemo'
p3401
I01
sS'/tags/romain'
p3402
I01
sS'/tags/analized'
p3403
I01
sS'/tags/german'
p3404
I01
sS'/tags/class'
p3405
I01
sS'/tags/desi'
p3406
I01
sS'/tags/d'
p3407
I01
sS'/tags/desk'
p3408
I01
sS'/tags/straight'
p3409
I01
sS'/tags/fisting'
p3410
I01
sS'/tags/titlicking'
p3411
I01
sS'/tags/massive-tits'
p3412
I01
sS'/tags/boysextra'
p3413
I01
sS'/tags/high-heels'
p3414
I01
sS'/tags/calientes'
p3415
I01
sS'/tags/eurotwinkin'
p3416
I01
sS'/tags/nadine'
p3417
I01
sS'/tags/peruanas'
p3418
I01
sS'/tags/gym'
p3419
I01
sS'/tags/brain'
p3420
I01
sS'/tags/bust'
p3421
I01
sS'/tags/vette'
p3422
I01
sS'/tags/panties'
p3423
I01
sS'/tags/gay-broke'
p3424
I01
sS'/tags/gay-lollipoptwinks'
p3425
I01
sS'/tags/popping'
p3426
I01
sS'/tags/its-gonna-hurt'
p3427
I01
sS'/tags/morning'
p3428
I01
sS'/tags/gay-maskurbate'
p3429
I01
sS'/tags/watching'
p3430
I01
sS'/tags/jizzed'
p3431
I01
sS'/tags/golden'
p3432
I01
sS'/tags/core'
p3433
I01
sS'/tags/fap'
p3434
I01
sS'/tags/undies'
p3435
I01
sS'/tags/blowjobs'
p3436
I01
sS'/tags/venus'
p3437
I01
sS'/tags/gay-muscled'
p3438
I01
sS'/tags/jackoff'
p3439
I01
sS'/tags/realasianexposed'
p3440
I01
sS'/tags/tubebutler'
p3441
I01
sS'/tags/pau'
p3442
I01
sS'/tags/missy'
p3443
I01
sS'/tags/3'
p3444
I01
sS'/tags/grandes'
p3445
I01
sS'/tags/stern'
p3446
I01
sS'/tags/pinoy'
p3447
I01
sS'/tags/patricia'
p3448
I01
sS'/tags/gay-gotblake'
p3449
I01
sS'/tags/pretty'
p3450
I01
sS'/tags/povqueens'
p3451
I01
sS'/tags/gay-group'
p3452
I01
sS'/tags/mamada'
p3453
I01
sS'/tags/summer'
p3454
I01
sS'/tags/publicnudity'
p3455
I01
sS'/tags/voluptuous'
p3456
I01
sS'/tags/homegrown'
p3457
I01
sS'/tags/gay-mybrothershotfriend'
p3458
I01
sS'/tags/school-girl'
p3459
I01
sS'/tags/footjobsucking'
p3460
I01
sS'/tags/weird'
p3461
I01
sS'/tags/smalltits'
p3462
I01
sS'/tags/roxxx'
p3463
I01
sS'/tags/nasty'
p3464
I01
sS'/tags/kate'
p3465
I01
sS'/tags/punk'
p3466
I01
sS'/tags/pija'
p3467
I01
sS'/tags/parody'
p3468
I01
sS'/tags/pussyjuice'
p3469
I01
sS'/tags/gay-hardcore'
p3470
I01
sS'/tags/minas'
p3471
I01
sS'/tags/cumhsot'
p3472
I01
sS'/tags/cumgargling'
p3473
I01
sS'/tags/cocks'
p3474
I01
sS'/tags/vadias'
p3475
I01
sS'/tags/grupal'
p3476
I01
sS'/tags/chicks'
p3477
I01
sS'/tags/squirt'
p3478
I01
sS'/tags/abuse'
p3479
I01
sS'/tags/step'
p3480
I01
sS'/tags/bigass'
p3481
I01
sS'/tags/lesbo'
p3482
I01
sS'/tags/gilf'
p3483
I01
sS'/tags/oops'
p3484
I01
sS'/tags/elle'
p3485
I01
sS'/tags/naturals'
p3486
I01
sS'/tags/lagunera'
p3487
I01
sS'/tags/vincent'
p3488
I01
sS'/tags/que'
p3489
I01
sS'/tags/bubble-butt'
p3490
I01
sS'/tags/curlyhair'
p3491
I01
sS'/tags/grandmother'
p3492
I01
sS'/tags/princess'
p3493
I01
sS'/tags/pussyeating'
p3494
I01
sS'/tags/vanessa'
p3495
I01
sS'/tags/hugedick'
p3496
I01
sS'/tags/pussygaping'
p3497
I01
sS'/tags/dominant'
p3498
I01
sS'/tags/shuffle'
p3499
I01
sS'/tags/realgayvideos'
p3500
I01
sS'/tags/nicejocks'
p3501
I01
sS'/tags/chiavari'
p3502
I01
sS'/tags/blodne'
p3503
I01
sS'/tags/fukalot'
p3504
I01
sS'/tags/jerking'
p3505
I01
sS'/tags/masterbation'
p3506
I01
sS'/tags/japan'
p3507
I01
sS'/tags/hole'
p3508
I01
sS'/tags/backroom'
p3509
I01
sS'/tags/large-breasts'
p3510
I01
sS'/tags/tyla'
p3511
I01
sS'/tags/toe'
p3512
I01
sS'/tags/action'
p3513
I01
sS'/tags/salivating'
p3514
I01
sS'/tags/masturbacion'
p3515
I01
sS'/tags/torture'
p3516
I01
sS'/tags/gay-papparaunch'
p3517
I01
sS'/tags/tease'
p3518
I01
sS'/tags/bella'
p3519
I01
sS'/tags/being'
p3520
I01
sS'/tags/toy'
p3521
I01
sS'/tags/bumfuck'
p3522
I01
sS'/tags/belle'
p3523
I01
sS'/tags/leaked'
p3524
I01
sS'/tags/massage-creep'
p3525
I01
sS'/tags/top'
p3526
I01
sS'/tags/san'
p3527
I01
sS'/tags/leather'
p3528
I01
sS'/tags/mason'
p3529
I01
sS'/tags/con'
p3530
I01
sS'/tags/alexis'
p3531
I01
sS'/tags/samson'
p3532
I01
sS'/tags/mujra'
p3533
I01
sS'/tags/cunts'
p3534
I01
sS'/tags/munch'
p3535
I01
sS'/tags/swingers'
p3536
I01
sS'/tags/4'
p3537
I01
sS'/tags/mattos'
p3538
I01
sS'/tags/von'
p3539
I01
sS'/tags/not'
p3540
I01
sS'/tags/realsex'
p3541
I01
sS'/tags/myracequeens'
p3542
I01
sS'/tags/por'
p3543
I01
sS'/tags/latinagfexposed'
p3544
I01
sS'/tags/first'
p3545
I01
sS'/tags/starck'
p3546
I01
sS'/tags/exhibicionista'
p3547
I01
sS'/tags/haze'
p3548
I01
sS'/tags/tipsi'
p3549
I01
sS'/tags/premium'
p3550
I01
sS'/tags/kitty'
p3551
I01
sS'/tags/belly'
p3552
I01
sS'/tags/milano'
p3553
I01
sS'/tags/muffdive'
p3554
I01
sS'/tags/gina'
p3555
I01
sS'/tags/front'
p3556
I01
sS'/tags/voyeurs'
p3557
I01
sS'/tags/upper'
p3558
I01
sS'/tags/exercise'
p3559
I01
sS'/tags/follada'
p3560
I01
sS'/tags/teenhacked'
p3561
I01
sS'/tags/gay-brazilions'
p3562
I01
sS'/tags/disney'
p3563
I01
sS'/tags/amateurteenies'
p3564
I01
sS'/tags/ropes'
p3565
I01
sS'/tags/australian'
p3566
I01
sS'/tags/tub'
p3567
I01
sS'/tags/transgender'
p3568
I01
sS'/tags/insane'
p3569
I01
sS'/tags/destroyed'
p3570
I01
sS'/tags/glass'
p3571
I01
sS'/tags/roped'
p3572
I01
sS'/tags/kirsten'
p3573
I01
sS'/tags/friendly'
p3574
I01
sS'/tags/ir'
p3575
I01
sS'/tags/alice'
p3576
I01
sS'/tags/christina'
p3577
I01
sS'/tags/hammerboys'
p3578
I01
sS'/tags/hijab'
p3579
I01
sS'/tags/ripped'
p3580
I01
sS'/tags/long-videos'
p3581
I01
sS'/tags/destroyer'
p3582
I01
sS'/tags/stolen'
p3583
I01
sS'/tags/sanches'
p3584
I01
sS'/tags/pusyslicking'
p3585
I01
sS'/tags/bruna'
p3586
I01
sS'/tags/rubber'
p3587
I01
sS'/tags/doing'
p3588
I01
sS'/tags/trimmedpussy'
p3589
I01
sS'/tags/mama'
p3590
I01
sS'/tags/trying'
p3591
I01
sS'/tags/music'
p3592
I01
sS'/tags/fingerbanging'
p3593
I01
sS'/tags/paja'
p3594
I01
sS'/tags/gratis'
p3595
I01
sS'/tags/great'
p3596
I01
sS'/tags/grandmom'
p3597
I01
sS'/tags/straightguy'
p3598
I01
sS'/tags/teacher'
p3599
I01
sS'/tags/tourist'
p3600
I01
sS'/tags/pussies'
p3601
I01
sS'/tags/publico'
p3602
I01
sS'/tags/nextdoor'
p3603
I01
sS'/tags/havana'
p3604
I01
sS'/tags/youngasian'
p3605
I01
sS'/tags/gotcuteasian'
p3606
I01
sS'/tags/amateru'
p3607
I01
sS'/tags/romance'
p3608
I01
sS'/tags/mikayla'
p3609
I01
sS'/tags/casal'
p3610
I01
sS'/tags/id'
p3611
I01
sS'/tags/dominican'
p3612
I01
sS'/tags/gay-creampie'
p3613
I01
sS'/tags/wide'
p3614
I01
sS'/tags/cumdrooling'
p3615
I01
sS'/tags/ivy'
p3616
I01
sS'/tags/off'
p3617
I01
sS'/tags/smallpenis'
p3618
I01
sS'/tags/selfpic'
p3619
I01
sS'/tags/closeup'
p3620
I01
sS'/tags/dicksuck'
p3621
I01
sS'/tags/hunks'
p3622
I01
sS'/tags/at-work'
p3623
I01
sS'/tags/sienna'
p3624
I01
sS'/tags/layla'
p3625
I01
sS'/tags/tug'
p3626
I01
sS'/tags/masturbatio'
p3627
I01
sS'/tags/bangbook'
p3628
I01
sS'/tags/gay-anal'
p3629
I01
sS'/tags/shit'
p3630
I01
sS'/tags/pee'
p3631
I01
sS'/tags/troia'
p3632
I01
sS'/tags/lanny'
p3633
I01
sS'/tags/amate'
p3634
I01
sS'/tags/smother'
p3635
I01
sS'/tags/penis'
p3636
I01
sS'/tags/realamatuer'
p3637
I01
sS'/tags/vegitables'
p3638
I01
sS'/tags/silicontits'
p3639
I01
sS'/tags/work'
p3640
I01
sS'/tags/screaming'
p3641
I01
sS'/tags/calata'
p3642
I01
sS'/tags/sextapes'
p3643
I01
sS'/tags/glory'
p3644
I01
sS'/tags/putinhas'
p3645
I01
sS'/tags/extreme'
p3646
I01
sS'/tags/blacksonblondes'
p3647
I01
sS'/tags/rebeca'
p3648
I01
sS'/tags/fuckers'
p3649
I01
sS'/tags/celebs'
p3650
I01
sS'/tags/puffy'
p3651
I01
sS'/tags/virtual'
p3652
I01
sS'/tags/costa'
p3653
I01
sS'/tags/melody'
p3654
I01
sS'/tags/gaypridevault'
p3655
I01
sS'/tags/kick'
p3656
I01
sS'/tags/carmen'
p3657
I01
sS'/tags/tits'
p3658
I01
sS'/tags/amateurtubed'
p3659
I01
sS'/tags/amadores'
p3660
I01
sS'/tags/lactation'
p3661
I01
sS'/tags/dance'
p3662
I01
sS'/tags/fucker'
p3663
I01
sS'/tags/handsome'
p3664
I01
sS'/tags/charley'
p3665
I01
sS'/tags/reed'
p3666
I01
sS'/tags/dildoing'
p3667
I01
sS'/tags/peep'
p3668
I01
sS'/tags/porno'
p3669
I01
sS'/tags/collegegirl'
p3670
I01
sS'/tags/rachel'
p3671
I01
sS'/tags/gushedboys'
p3672
I01
sS'/tags/boquete'
p3673
I01
sS'/tags/fingers'
p3674
I01
sS'/tags/clips'
p3675
I01
sS'/tags/latinogaypass'
p3676
I01
sS'/tags/fucked'
p3677
I01
sS'/tags/pornstarsonwebcam'
p3678
I01
sS'/tags/amber'
p3679
I01
sS'/tags/vidz'
p3680
I01
sS'/tags/movieroom'
p3681
I01
sS'/tags/grown'
p3682
I01
sS'/tags/latin'
p3683
I01
sS'/tags/ghetto'
p3684
I01
sS'/tags/web'
p3685
I01
sS'/tags/parlour'
p3686
I01
sS'/tags/hungary'
p3687
I01
sS'/tags/totally'
p3688
I01
sS'/tags/europeans'
p3689
I01
sS'/tags/rubbing'
p3690
I01
sS'/tags/luvana'
p3691
I01
sS'/tags/room'
p3692
I01
sS'/tags/peefun'
p3693
I01
sS'/tags/biggest'
p3694
I01
sS'/tags/wet'
p3695
I01
sS'/tags/doubleanal'
p3696
I01
sS'/tags/showing'
p3697
I01
sS'/tags/gay-masturbation'
p3698
I01
sS'/tags/watermarked'
p3699
I01
sS'/tags/sapphic-erotica'
p3700
I01
sS'/tags/deansboys'
p3701
I01
sS'/tags/makes'
p3702
I01
sS'/tags/seniors'
p3703
I01
sS'/tags/pusy'
p3704
I01
sS'/tags/mast'
p3705
I01
sS'/tags/exhibitionist'
p3706
I01
sS'/tags/bareass'
p3707
I01
sS'/tags/nepali'
p3708
I01
sS'/tags/puss'
p3709
I01
sS'/tags/alphamalefuckers'
p3710
I01
sS'/tags/spooge'
p3711
I01
sS'/tags/bizar'
p3712
I01
sS'/tags/james'
p3713
I01
sS'/tags/stranger'
p3714
I01
sS'/tags/italiana'
p3715
I01
sS'/tags/showers'
p3716
I01
sS'/tags/pornstar'
p3717
I01
sS'/tags/adventure'
p3718
I01
sS'/tags/mask'
p3719
I01
sS'/tags/italiano'
p3720
I01
sS'/tags/blond'
p3721
I01
sS'/tags/getiton'
p3722
I01
sS'/tags/exhibitionism'
p3723
I01
sS'/tags/housewive'
p3724
I01
sS'/tags/hairstyle'
p3725
I01
sS'/tags/sucks'
p3726
I01
sS'/tags/sites'
p3727
I01
sS'/tags/gay-black'
p3728
I01
sS'/tags/nutsucking'
p3729
I01
sS'/tags/de'
p3730
I01
sS'/tags/gay-redhotlatins'
p3731
I01
sS'/tags/buff'
p3732
I01
sS'/tags/britainboyz'
p3733
I01
sS'/tags/swap'
p3734
I01
sS'/tags/pegging'
p3735
I01
sS'/tags/watch'
p3736
I01
sS'/tags/hartcore'
p3737
I01
sS'/tags/redbone'
p3738
I01
sS'/tags/loira'
p3739
I01
sS'/tags/fresh'
p3740
I01
sS'/tags/ama'
p3741
I01
sS'/tags/painful'
p3742
I01
sS'/tags/gay-voyeur'
p3743
I01
sS'/tags/creampy'
p3744
I01
sS'/tags/gay-crowd'
p3745
I01
sS'/tags/gay-marriedbf'
p3746
I01
sS'/tags/hugetits'
p3747
I01
sS'/tags/perverse'
p3748
I01
sS'/tags/gay-jock'
p3749
I01
sS'/tags/amazing'
p3750
I01
sS'/tags/sluts'
p3751
I01
sS'/tags/find'
p3752
I01
sS'/tags/fine'
p3753
I01
sS'/tags/small-boobs'
p3754
I01
sS'/tags/ghetto-booty'
p3755
I01
sS'/tags/gay-workingcock'
p3756
I01
sS'/tags/worship'
p3757
I01
sS'/tags/surfistinha'
p3758
I01
sS'/tags/female-teacher'
p3759
I01
sS'/tags/korean'
p3760
I01
sS'/tags/dude'
p3761
I01
sS'/tags/natasha'
p3762
I01
sS'/tags/ramon'
p3763
I01
sS'/tags/thomas'
p3764
I01
sS'/tags/18years'
p3765
I01
sS'/tags/eighteen'
p3766
I01
sS'/tags/tight'
p3767
I01
sS'/tags/instruction'
p3768
I01
sS'/tags/destiny'
p3769
I01
sS'/tags/slave'
p3770
I01
sS'/tags/hooters'
p3771
I01
sS'/tags/butterloads'
p3772
I01
sS'/tags/atriz'
p3773
I01
sS'/tags/suck'
p3774
I01
sS'/tags/milfhunter'
p3775
I01
sS'/tags/creampies'
p3776
I01
sS'/tags/ass-fingering'
p3777
I01
sS'/tags/punishment'
p3778
I01
sS'/tags/suce'
p3779
I01
sS'/tags/kneesocks'
p3780
I01
sS'/tags/memphis'
p3781
I01
sS'/tags/ventura'
p3782
I01
sS'/tags/videos'
p3783
I01
sS'/tags/mother'
p3784
I01
sS'/tags/sweetandraw'
p3785
I01
sS'/tags/dogstyle'
p3786
I01
sS'/tags/creampied'
p3787
I01
sS'/tags/banks'
p3788
I01
sS'/tags/star'
p3789
I01
sS'/tags/bound'
p3790
I01
sS'/tags/4some'
p3791
I01
sS'/tags/saint'
p3792
I01
sS'/tags/food'
p3793
I01
sS'/tags/gay-brokestraightdude'
p3794
I01
sS'/tags/footjob'
p3795
I01
sS'/tags/africa'
p3796
I01
sS'/tags/orgasm'
p3797
I01
sS'/tags/pornstars'
p3798
I01
sS'/tags/macho'
p3799
I01
sS'/tags/cuminmouth'
p3800
I01
sS'/tags/liana'
p3801
I01
sS'/tags/espanola'
p3802
I01
sS'/tags/amante'
p3803
I01
sS'/tags/thongs'
p3804
I01
sS'/tags/arrecha'
p3805
I01
sS'/tags/covered'
p3806
I01
sS'/tags/dressing'
p3807
I01
sS'/tags/talks'
p3808
I01
sS'/tags/professor'
p3809
I01
sS'/tags/disgrace'
p3810
I01
sS'/tags/bootylicious'
p3811
I01
sS'/tags/gay-fleshlight'
p3812
I01
sS'/tags/schoolboy'
p3813
I01
sS'/tags/bride'
p3814
I01
sS'/tags/gloryholes'
p3815
I01
sS'/tags/object'
p3816
I01
sS'/tags/alone'
p3817
I01
sS'/tags/scream'
p3818
I01
sS'/tags/gay-bound'
p3819
I01
sS'/tags/ganjiro'
p3820
I01
sS'/tags/espana'
p3821
I01
sS'/tags/bigblackdick'
p3822
I01
sS'/tags/shock'
p3823
I01
sS'/tags/italia'
p3824
I01
sS'/tags/objects'
p3825
I01
sS'/tags/poltergeist'
p3826
I01
sS'/tags/salope'
p3827
I01
sS'/tags/gfs'
p3828
I01
sS'/tags/brea'
p3829
I01
sS'/tags/korea'
p3830
I01
sS'/tags/shawna'
p3831
I01
sS'/tags/gay-homohusband'
p3832
I01
sS'/tags/siffredi'
p3833
I01
sS'/tags/pussyplay'
p3834
I01
sS'/tags/undressing'
p3835
I01
sS'/tags/jelena'
p3836
I01
sS'/tags/mommy-got-boobs'
p3837
I01
sS'/tags/enema'
p3838
I01
sS'/tags/hiphop'
p3839
I01
sS'/tags/seductive'
p3840
I01
sS'/tags/pussfucking'
p3841
I01
sS'/tags/cumontits'
p3842
I01
sS'/tags/alessandra'
p3843
I01
sS'/tags/big-ass'
p3844
I01
sS'/tags/futanaria'
p3845
I01
sS'/tags/gay-hammerboys'
p3846
I01
sS'/tags/south'
p3847
I01
sS'/tags/brune'
p3848
I01
sS'/tags/trina'
p3849
I01
sS'/tags/gay-hazehim'
p3850
I01
sS'/tags/silver'
p3851
I01
sS'/tags/gay-gotmasked'
p3852
I01
sS'/tags/avy'
p3853
I01
sS'/tags/younger'
p3854
I01
sS'/tags/butts'
p3855
I01
sS'/tags/break'
p3856
I01
sS'/tags/casada'
p3857
I01
sS'/tags/simone'
p3858
I01
sS'/tags/argentina'
p3859
I01
sS'/tags/ava'
p3860
I01
sS'/tags/midnight'
p3861
I01
sS'/tags/cusmhot'
p3862
I01
sS'/tags/argentino'
p3863
I01
sS'/tags/intercourse'
p3864
I01
sS'/tags/club'
p3865
I01
sS'/tags/jameson'
p3866
I01
sS'/tags/follando'
p3867
I01
sS'/tags/gotgayboss'
p3868
I01
sS'/tags/ruiva'
p3869
I01
sS'/tags/slutty'
p3870
I01
sS'/tags/strippme'
p3871
I01
sS'/tags/fuckeduphentai'
p3872
I01
sS'/tags/bangladeshi'
p3873
I01
sS'/tags/submisive'
p3874
I01
sS'/tags/jpteacher'
p3875
I01
sS'/tags/socando'
p3876
I01
sS'/tags/danielle'
p3877
I01
sS'/tags/pumps'
p3878
I01
sS'/tags/kink'
p3879
I01
sS'/tags/tightpussy'
p3880
I01
sS'/tags/mostrando'
p3881
I01
sS'/tags/blowob'
p3882
I01
sS'/tags/cody'
p3883
I01
sS'/tags/schoolgirls'
p3884
I01
sS'/tags/squirter'
p3885
I01
sS'/tags/gaycreeps'
p3886
I01
sS'/tags/lopez'
p3887
I01
sS'/tags/security'
p3888
I01
sS'/tags/rubia'
p3889
I01
sS'/tags/blojob'
p3890
I01
sS'/tags/lopes'
p3891
I01
sS'/tags/brownhair'
p3892
I01
sS'/tags/cummz'
p3893
I01
sS'/tags/akira'
p3894
I01
sS'/tags/breanne'
p3895
I01
sS'/tags/devine'
p3896
I01
sS'/tags/gauge'
p3897
I01
sS'/tags/plug'
p3898
I01
sS'/tags/amatrice'
p3899
I01
sS'/tags/higheels'
p3900
I01
sS'/tags/allison'
p3901
I01
sS'/tags/asslick'
p3902
I01
sS'/tags/brazzil'
p3903
I01
sS'/tags/masseuse'
p3904
I01
sS'/tags/explosivedildostories'
p3905
I01
sS'/tags/gay-globeboys'
p3906
I01
sS'/tags/lesbicas'
p3907
I01
sS'/tags/stripclub'
p3908
I01
sS'/tags/matures'
p3909
I01
sS'/tags/pool'
p3910
I01
sS'/tags/gay-kissing'
p3911
I01
sS'/tags/getjapanesepass'
p3912
I01
sS'/tags/pendeja'
p3913
I01
sS'/tags/trios'
p3914
I01
sS'/tags/leggy'
p3915
I01
sS'/tags/sunbed'
p3916
I01
sS'/tags/kimberly'
p3917
I01
sS'/tags/sinn'
p3918
I01
sS'/tags/hair'
p3919
I01
sS'/tags/goth'
p3920
I01
sS'/tags/senior'
p3921
I01
sS'/tags/gayporno'
p3922
I01
sS'/tags/home'
p3923
I01
sS'/tags/firm'
p3924
I01
sS'/tags/watchmeandmypussy'
p3925
I01
sS'/tags/corrida'
p3926
I01
sS'/tags/pissdrinking'
p3927
I01
sS'/tags/throatfuck'
p3928
I01
sS'/tags/fire'
p3929
I01
sS'/tags/donna'
p3930
I01
sS'/tags/elisabethfilms'
p3931
I01
sS'/tags/homegrownflix'
p3932
I01
sS'/tags/semen'
p3933
I01
sS'/tags/strapons'
p3934
I01
sS'/tags/throatfucking'
p3935
I01
sS'/tags/auditions'
p3936
I01
sS'/tags/cock-licking'
p3937
I01
sS'/tags/venezolana'
p3938
I01
sS'/tags/hung'
p3939
I01
sS'/tags/oily'
p3940
I01
sS'/tags/hunk'
p3941
I01
sS'/tags/gay-globeboyz'
p3942
I01
sS'/tags/cove'
p3943
I01
sS'/tags/gay-backroomfuckers'
p3944
I01
sS'/tags/janet'
p3945
I01
sS'/tags/papparaunch'
p3946
I01
sS'/tags/twins'
p3947
I01
sS'/tags/vids'
p3948
I01
sS'/tags/gang-bang'
p3949
I01
sS'/tags/message'
p3950
I01
sS'/tags/orgy'
p3951
I01
sS'/tags/mia'
p3952
I01
sS'/tags/novia'
p3953
I01
sS'/tags/skanks'
p3954
I01
sS'/tags/gay-masturbating'
p3955
I01
sS'/tags/sextrip'
p3956
I01
sS'/tags/amateure'
p3957
I01
sS'/tags/fmm'
p3958
I01
sS'/tags/flirty'
p3959
I01
sS'/tags/slender'
p3960
I01
sS'/tags/instant'
p3961
I01
sS'/tags/prowl'
p3962
I01
sS'/tags/year'
p3963
I01
sS'/tags/flawless'
p3964
I01
sS'/tags/licks'
p3965
I01
sS'/tags/fatass'
p3966
I01
sS'/tags/jocks'
p3967
I01
sS'/tags/gostosa'
p3968
I01
sS'/tags/blackwomen'
p3969
I01
sS'/tags/chastity'
p3970
I01
sS'/tags/emma'
p3971
I01
sS'/tags/mayhem'
p3972
I01
sS'/tags/tgirls'
p3973
I01
sS'/tags/pussyfuck'
p3974
I01
sS'/tags/service'
p3975
I01
sS'/tags/aunty'
p3976
I01
sS'/tags/gozo'
p3977
I01
sS'/tags/philippines'
p3978
I01
sS'/tags/eroge'
p3979
I01
sS'/tags/spex'
p3980
I01
sS'/tags/bachelorette'
p3981
I01
sS'/tags/punished'
p3982
I01
sS'/tags/while'
p3983
I01
sS'/tags/thai'
p3984
I01
sS'/tags/than'
p3985
I01
sS'/tags/gay-stud'
p3986
I01
sS'/tags/asiangirls'
p3987
I01
sS'/tags/poland'
p3988
I01
sS'/tags/multipleblowjob'
p3989
I01
sS'/tags/hottest'
p3990
I01
sS'/tags/amateu'
p3991
I01
sS'/tags/assgaping'
p3992
I01
sS'/tags/sleep'
p3993
I01
sS'/tags/marques'
p3994
I01
sS'/tags/fudendo'
p3995
I01
sS'/tags/has'
p3996
I01
sS'/tags/smallbreasts'
p3997
I01
sS'/tags/ladies'
p3998
I01
sS'/tags/porra'
p3999
I01
sS'/tags/that'
p4000
I01
sS'/tags/olderman'
p4001
I01
sS'/tags/rim'
p4002
I01
sS'/tags/rain'
p4003
I01
sS'/tags/gay-raw'
p4004
I01
sS'/tags/guycreep'
p4005
I01
sS'/tags/nut'
p4006
I01
sS'/tags/pornautes'
p4007
I01
sS'/tags/male'
p4008
I01
sS'/tags/rio'
p4009
I01
sS'/tags/mammaries'
p4010
I01
sS'/tags/housewifes'
p4011
I01
sS'/tags/flashing'
p4012
I01
sS'/tags/big-natural-tits'
p4013
I01
sS'/tags/spring'
p4014
I01
sS'/tags/cogiendo'
p4015
I01
sS'/tags/wtf'
p4016
I01
sS'/tags/40'
p4017
I01
sS'/tags/reallesbianexposed'
p4018
I01
sS'/tags/moneytalks'
p4019
I01
sS'/tags/colorful'
p4020
I01
sS'/tags/strip'
p4021
I01
sS'/tags/gay-bigcock'
p4022
I01
sS'/tags/masturbate'
p4023
I01
sS'/tags/midnightprowl'
p4024
I01
sS'/tags/gay-extreme'
p4025
I01
sS'/tags/sammie'
p4026
I01
sS'/tags/woodman'
p4027
I01
sS'/tags/photoshoot'
p4028
I01
sS'/tags/giggle'
p4029
I01
sS'/tags/robin'
p4030
I01
sS'/tags/sunny'
p4031
I01
sS'/tags/kacey'
p4032
I01
sS'/tags/bruno'
p4033
I01
sS'/tags/body'
p4034
I01
sS'/tags/gay-ass'
p4035
I01
sS'/tags/roundass'
p4036
I01
sS'/tags/wetpissingbabes'
p4037
I01
sS'/tags/cum-swallowing'
p4038
I01
sS'/tags/massagecocks'
p4039
I01
sS'/tags/bizzare'
p4040
I01
sS'/tags/chienne'
p4041
I01
sS'/tags/reversegangbang'
p4042
I01
sS'/tags/kasia'
p4043
I01
sS'/tags/glam'
p4044
I01
sS'/tags/groping'
p4045
I01
sS'/tags/amor'
p4046
I01
sS'/tags/escondida'
p4047
I01
sS'/tags/holland'
p4048
I01
sS'/tags/gay-gotsurprise'
p4049
I01
sS'/tags/bigpenis'
p4050
I01
sS'/tags/bigbreasts'
p4051
I01
sS'/tags/heel'
p4052
I01
sS'/tags/simpson'
p4053
I01
sS'/tags/bangbros'
p4054
I01
sS'/tags/daisy'
p4055
I01
sS'/tags/gay-barebackedtwink'
p4056
I01
sS'/tags/victoria'
p4057
I01
sS'/tags/escort'
p4058
I01
sS'/tags/hardcode'
p4059
I01
sS'/tags/fabiane'
p4060
I01
sS'/tags/shehe'
p4061
I01
sS'/tags/lesb'
p4062
I01
sS'/tags/area'
p4063
I01
sS'/tags/jpschoolgirls'
p4064
I01
sS'/tags/gspot'
p4065
I01
sS'/tags/givemegape'
p4066
I01
sS'/tags/sybian'
p4067
I01
sS'/tags/coach'
p4068
I01
sS'/tags/kayden'
p4069
I01
sS'/tags/rawnsweet'
p4070
I01
sS'/tags/lactating'
p4071
I01
sS'/tags/analingus'
p4072
I01
sS'/tags/gay-rimmed'
p4073
I01
sS'/tags/boyfriendnudes'
p4074
I01
sS'/tags/bitches'
p4075
I01
sS'/tags/tawny'
p4076
I01
sS'/tags/midget'
p4077
I01
sS'/tags/natural'
p4078
I01
sS'/tags/verga'
p4079
I01
sS'/tags/francesca'
p4080
I01
sS'/tags/stripshow'
p4081
I01
sS'/tags/secretaryhoes'
p4082
I01
sS'/tags/colombia'
p4083
I01
sS'/tags/18y'
p4084
I01
sS'/tags/breastmilk'
p4085
I01
sS'/tags/cd'
p4086
I01
sS'/tags/bimbo'
p4087
I01
sS'/tags/anus'
p4088
I01
sS'/tags/pump'
p4089
I01
sS'/tags/view'
p4090
I01
sS'/tags/visit'
p4091
I01
sS'/tags/blackgirl'
p4092
I01
sS'/tags/secret'
p4093
I01
sS'/tags/adventures'
p4094
I01
sS'/tags/gay-porn'
p4095
I01
sS'/tags/pussy-fuck'
p4096
I01
sS'/tags/both'
p4097
I01
sS'/tags/sheets'
p4098
I01
sS'/tags/cu'
p4099
I01
sS'/tags/undress'
p4100
I01
sS'/tags/facefuck'
p4101
I01
sS'/tags/gay-monstercock'
p4102
I01
sS'/tags/high'
p4103
I01
sS'/tags/pussylicking'
p4104
I01
sS'/tags/warner'
p4105
I01
sS'/tags/dancing-bear'
p4106
I01
sS'/tags/kira'
p4107
I01
sS'/tags/bailey'
p4108
I01
sS'/tags/theclassicporn'
p4109
I01
sS'/tags/sexinpublic'
p4110
I01
sS'/tags/sperm'
p4111
I01
sS'/tags/reallatinaexposed'
p4112
I01
sS'/tags/fit'
p4113
I01
sS'/tags/pale'
p4114
I01
sS'/tags/asswatcher'
p4115
I01
sS'/tags/bigtis'
p4116
I01
sS'/tags/melanie'
p4117
I01
sS'/tags/petera'
p4118
I01
sS'/tags/alphamalesuckers'
p4119
I01
sS'/tags/emmanuelle'
p4120
I01
sS'/tags/priscilla'
p4121
I01
sS'/tags/rosario'
p4122
I01
sS'/tags/cumdrool'
p4123
I01
sS'/tags/curvy'
p4124
I01
sS'/tags/barbara'
p4125
I01
sS'/tags/gayathletic'
p4126
I01
sS'/tags/gaysuck'
p4127
I01
sS'/tags/elena'
p4128
I01
sS'/tags/throat'
p4129
I01
sS'/tags/sexiest'
p4130
I01
sS'/tags/access'
p4131
I01
sS'/tags/carefreesex'
p4132
I01
sS'/tags/allanal'
p4133
I01
sS'/tags/nailed'
p4134
I01
sS'/tags/kisses'
p4135
I01
sS'/tags/dogcollar'
p4136
I01
sS'/tags/steele'
p4137
I01
sS'/tags/dickscucking'
p4138
I01
sS'/tags/italian'
p4139
I01
sS'/tags/lauren'
p4140
I01
sS'/tags/hardcore'
p4141
I01
sS'/tags/pussyfuckings'
p4142
I01
sS'/tags/leigh'
p4143
I01
sS'/tags/realgfsexposed'
p4144
I01
sS'/tags/backstage'
p4145
I01
sS'/tags/ecretary'
p4146
I01
sS'/tags/orientalsex'
p4147
I01
sS'/tags/pro'
p4148
I01
sS'/tags/mandy'
p4149
I01
sS'/tags/big-dick'
p4150
I01
sS'/tags/stylez'
p4151
I01
sS'/tags/boundgods'
p4152
I01
sS'/tags/padilha'
p4153
I01
sS'/tags/squirting'
p4154
I01
sS'/tags/avidolz'
p4155
I01
sS'/tags/nylon'
p4156
I01
sS'/tags/finger-fuck'
p4157
I01
sS'/tags/leak'
p4158
I01
sS'/tags/personals'
p4159
I01
sS'/tags/john'
p4160
I01
sS'/tags/blow-job'
p4161
I01
sS'/tags/big'
p4162
I01
sS'/tags/piroca'
p4163
I01
sS'/tags/acting'
p4164
I01
sS'/tags/luscious'
p4165
I01
sS'/tags/gangbangs'
p4166
I01
sS'/tags/gia'
p4167
I01
sS'/tags/rabuda'
p4168
I01
sS'/tags/roundbutts'
p4169
I01
sS'/tags/gay-dreaming'
p4170
I01
sS'/tags/girlspornteen'
p4171
I01
sS'/tags/fingerbang'
p4172
I01
sS'/tags/caning'
p4173
I01
sS'/tags/dolly'
p4174
I01
sS'/tags/gay-buttered'
p4175
I01
sS'/tags/breed'
p4176
I01
sS'/tags/blow'
p4177
I01
sS'/tags/omegle'
p4178
I01
sS'/tags/scarf'
p4179
I01
sS'/tags/peter'
p4180
I01
sS'/tags/with'
p4181
I01
sS'/tags/hand'
p4182
I01
sS'/tags/latino'
p4183
I01
sS'/tags/gay-emosexposed'
p4184
I01
sS'/tags/stylish'
p4185
I01
sS'/tags/gros'
p4186
I01
sS'/tags/sitting'
p4187
I01
sS'/tags/laura'
p4188
I01
sS'/tags/cockcucking'
p4189
I01
sS'/tags/encoxada'
p4190
I01
sS'/tags/workfuck'
p4191
I01
sS'/tags/punxxx'
p4192
I01
sS'/tags/safadinha'
p4193
I01
sS'/tags/pussylick'
p4194
I01
sS'/tags/rage'
p4195
I01
sS'/tags/stone'
p4196
I01
sS'/tags/rihanna'
p4197
I01
sS'/tags/teenbff'
p4198
I01
sS'/tags/stagette'
p4199
I01
sS'/tags/gratuito'
p4200
I01
sS'/tags/gay-gothimout'
p4201
I01
sS'/tags/rides'
p4202
I01
sS'/tags/zoe'
p4203
I01
sS'/tags/pants'
p4204
I01
sS'/tags/rileyrebel'
p4205
I01
sS'/tags/slapping'
p4206
I01
sS'/tags/baby-got-boobs'
p4207
I01
sS'/tags/vara'
p4208
I01
sS'/tags/fist'
p4209
I01
sS'/tags/ashton'
p4210
I01
sS'/tags/guy'
p4211
I01
sS'/tags/panty'
p4212
I01
sS'/tags/doublepoke'
p4213
I01
sS'/tags/thin'
p4214
I01
sS'/tags/teenage'
p4215
I01
sS'/tags/cams'
p4216
I01
sS'/tags/boy'
p4217
I01
sS'/tags/heavy'
p4218
I01
sS'/tags/strips'
p4219
I01
sS'/tags/morgane'
p4220
I01
sS'/tags/mega'
p4221
I01
sS'/tags/collegegayphysical'
p4222
I01
sS'/tags/titys'
p4223
I01
sS'/tags/vibrator'
p4224
I01
sS'/tags/squirts'
p4225
I01
sS'/tags/slaves'
p4226
I01
sS'/tags/guarras'
p4227
I01
sS'/tags/redhotlatins'
p4228
I01
sS'/tags/latex'
p4229
I01
sS'/tags/gay-hairy'
p4230
I01
sS'/tags/teenburg'
p4231
I01
sS'/tags/homo'
p4232
I01
sS'/tags/cowboy'
p4233
I01
sS'/tags/dorms'
p4234
I01
sS'/tags/angie'
p4235
I01
sS'/tags/tgirl'
p4236
I01
sS'/tags/roleplay'
p4237
I01
sS'/tags/gay-white'
p4238
I01
sS'/tags/bareadventures'
p4239
I01
sS'/tags/gloryholez'
p4240
I01
sS'/tags/harmony'
p4241
I01
sS'/tags/lindsay'
p4242
I01
sS'/tags/fakecum'
p4243
I01
sS'/tags/teach'
p4244
I01
sS'/tags/brief'
p4245
I01
sS'/tags/barebackedtwink'
p4246
I01
sS'/tags/reversedgangbang'
p4247
I01
sS'/tags/beatas'
p4248
I01
sS'/tags/shaved'
p4249
I01
sS'/tags/taint'
p4250
I01
sS'/tags/stunningly'
p4251
I01
sS'/tags/stunning'
p4252
I01
sS'/tags/sakura'
p4253
I01
sS'/tags/shaven'
p4254
I01
sS'/tags/gay-foot'
p4255
I01
sS'/tags/globeboys'
p4256
I01
sS'/tags/bignaturals'
p4257
I01
sS'/tags/doctoradventures'
p4258
I01
sS'/tags/colombianas'
p4259
I01
sS'/tags/throatjob'
p4260
I01
sS'/tags/threeways'
p4261
I01
sS'/tags/russia'
p4262
I01
sS'/tags/thugs'
p4263
I01
sS'/tags/angelina'
p4264
I01
sS'/tags/thaiza'
p4265
I01
sS'/tags/sandra'
p4266
I01
sS'/tags/animation'
p4267
I01
sS'/tags/lollitwinks'
p4268
I01
sS'/tags/ex-girlfriends'
p4269
I01
sS'/tags/gatas'
p4270
I01
sS'/tags/tiger'
p4271
I01
sS'/tags/jessie'
p4272
I01
sS'/tags/melissa'
p4273
I01
sS'/tags/masturbates'
p4274
I01
sS'/tags/moglie'
p4275
I01
sS'/tags/burning'
p4276
I01
sS'/tags/gay-student'
p4277
I01
sS'/tags/jbvideoz'
p4278
I01
sS'/tags/roundbutt'
p4279
I01
sS'/tags/hardfucked'
p4280
I01
sS'/tags/celeberity'
p4281
I01
sS'/tags/tokyobigtit'
p4282
I01
sS'/tags/gay-fucking'
p4283
I01
sS'/tags/anallickfest'
p4284
I01
sS'/tags/dawn'
p4285
I01
sS'/tags/ricki'
p4286
I01
sS'/tags/fio'
p4287
I01
sS'/tags/sims'
p4288
I01
sS'/tags/wife'
p4289
I01
sS'/tags/sexsense'
p4290
I01
sS'/tags/analfisting'
p4291
I01
sS'/tags/interracialsex'
p4292
I01
sS'/tags/penetrations'
p4293
I01
sS'/tags/luxury'
p4294
I01
sS'/tags/form'
p4295
I01
sS'/tags/soap'
p4296
I01
sS'/tags/muslim'
p4297
I01
sS'/tags/scenes'
p4298
I01
sS'/tags/ss'
p4299
I01
sS'/tags/longlegs'
p4300
I01
sS'/tags/asiansex'
p4301
I01
sS'/tags/audrey'
p4302
I01
sS'/tags/daydream'
p4303
I01
sS'/tags/capri'
p4304
I01
sS'/tags/coahuila'
p4305
I01
sS'/tags/diabolical'
p4306
I01
sS'/tags/gay-bear'
p4307
I01
sS'/tags/next'
p4308
I01
sS'/tags/pussytomouth'
p4309
I01
sS'/tags/fat-cock'
p4310
I01
sS'/tags/jizz'
p4311
I01
sS'/tags/sexy'
p4312
I01
sS'/tags/cheeks'
p4313
I01
sS'/tags/compilation'
p4314
I01
sS'/tags/sub'
p4315
I01
sS'/tags/sexx'
p4316
I01
sS'/tags/pussysucking'
p4317
I01
sS'/tags/tatto'
p4318
I01
sS'/tags/ass-fucking'
p4319
I01
sS'/tags/gotrub'
p4320
I01
sS'/tags/lube'
p4321
I01
sS'/tags/sphincter'
p4322
I01
sS'/tags/sextoy'
p4323
I01
sS'/tags/flower'
p4324
I01
sS'/tags/putita'
p4325
I01
sS'/tags/emobf'
p4326
I01
sS'/tags/ocean'
p4327
I01
sS'/tags/queens'
p4328
I01
sS'/tags/beautiful-legs'
p4329
I01
sS'/tags/polskie'
p4330
I01
sS'/tags/him'
p4331
I01
sS'/tags/transex'
p4332
I01
sS'/tags/cartoons'
p4333
I01
sS'/tags/tugging'
p4334
I01
sS'/tags/mandingo'
p4335
I01
sS'/tags/balcony'
p4336
I01
sS'/tags/larissa'
p4337
I01
sS'/tags/ontop'
p4338
I01
sS'/tags/3some'
p4339
I01
sS'/tags/puffynipples'
p4340
I01
sS'/tags/bamboo'
p4341
I01
sS'/tags/neighbour'
p4342
I01
sS'/tags/felatio'
p4343
I01
sS'/tags/tats'
p4344
I01
sS'/tags/throath'
p4345
I01
sS'/tags/gay-jerking'
p4346
I01
sS'/tags/crempie'
p4347
I01
sS'/tags/gwen'
p4348
I01
sS'/tags/bdsm'
p4349
I01
sS'/tags/sm'
p4350
I01
sS'/tags/gonzo'
p4351
I01
sS'/tags/skinned'
p4352
I01
sS'/tags/wynn'
p4353
I01
sS'/tags/gagball'
p4354
I01
sS'/tags/trola'
p4355
I01
sS'/tags/sexfight'
p4356
I01
sS'/tags/ferro'
p4357
I01
sS'/tags/bj'
p4358
I01
sS'/tags/homegrownvideo'
p4359
I01
sS'/tags/tied'
p4360
I01
sS'/tags/outdoors'
p4361
I01
sS'/tags/bf'
p4362
I01
sS'/tags/gay-gushedboys'
p4363
I01
sS'/tags/bb'
p4364
I01
sS'/tags/friends'
p4365
I01
sS'/tags/vietnamese'
p4366
I01
sS'/tags/independent'
p4367
I01
sS'/tags/cuckold'
p4368
I01
sS'/tags/cuelty-party'
p4369
I01
sS'/tags/bailando'
p4370
I01
sS'/tags/mofos'
p4371
I01
sS'/tags/shake'
p4372
I01
sS'/tags/anal-fisting'
p4373
I01
sS'/tags/punishments'
p4374
I01
sS'/tags/school'
p4375
I01
sS'/tags/jenaveve'
p4376
I01
sS'/tags/manga'
p4377
I01
sS'/tags/giselle'
p4378
I01
sS'/tags/gay-pierced'
p4379
I01
sS'/tags/love'
p4380
I01
sS'/tags/meat'
p4381
I01
sS'/tags/mamando'
p4382
I01
sS'/tags/gay-bf'
p4383
I01
sS'/tags/films'
p4384
I01
sS'/tags/part-2'
p4385
I01
sS'/tags/part-1'
p4386
I01
sS'/tags/nastypissingbabes'
p4387
I01
sS'/tags/threesomes'
p4388
I01
sS'/tags/russians'
p4389
I01
sS'/tags/pussfyucking'
p4390
I01
sS'/tags/gay-bj'
p4391
I01
sS'/tags/absolutely'
p4392
I01
sS'/tags/wellin'
p4393
I01
sS'/tags/chase'
p4394
I01
sS'/tags/loud'
p4395
I01
sS'/tags/druunk'
p4396
I01
sS'/tags/titfucking'
p4397
I01
sS'/tags/shagging'
p4398
I01
sS'/tags/rebolando'
p4399
I01
sS'/tags/japanesematures'
p4400
I01
sS'/tags/bree'
p4401
I01
sS'/tags/midori'
p4402
I01
sS'/tags/worldofmen'
p4403
I01
sS'/tags/same'
p4404
I01
sS'/tags/touching'
p4405
I01
sS'/tags/chinese'
p4406
I01
sS'/tags/nun'
p4407
I01
sS'/tags/toying'
p4408
I01
sS'/tags/gata'
p4409
I01
sS'/tags/adams'
p4410
I01
sS'/tags/dirty-d'
p4411
I01
sS'/tags/lesbianas'
p4412
I01
sS'/tags/gay-sperm'
p4413
I01
sS'/tags/eated'
p4414
I01
sS'/tags/gay-jocks'
p4415
I01
sS'/tags/monstersofcock'
p4416
I01
sS'/tags/kerkove'
p4417
I01
sS'/tags/colombian'
p4418
I01
sS'/tags/nipples'
p4419
I01
sS'/tags/trib'
p4420
I01
sS'/tags/sell'
p4421
I01
sS'/tags/bundinha'
p4422
I01
sS'/tags/sister'
p4423
I01
sS'/tags/cheating'
p4424
I01
sS'/tags/trio'
p4425
I01
sS'/tags/back'
p4426
I01
sS'/tags/transexual'
p4427
I01
sS'/tags/bangg'
p4428
I01
sS'/tags/drink'
p4429
I01
sS'/tags/bubblebutttryouts'
p4430
I01
sS'/tags/middle'
p4431
I01
sS'/tags/undressed'
p4432
I01
sS'/tags/standingsex'
p4433
I01
sS'/tags/likes'
p4434
I01
sS'/tags/eastboys'
p4435
I01
sS'/tags/randyblow'
p4436
I01
sS'/tags/aunt'
p4437
I01
sS'/tags/puma'
p4438
I01
sS'/tags/katsuni'
p4439
I01
sS'/tags/pussy-licking'
p4440
I01
sS'/tags/usa'
p4441
I01
sS'/tags/amature'
p4442
I01
sS'/tags/asscreampie'
p4443
I01
sS'/tags/lemos'
p4444
I01
sS'/tags/princyany'
p4445
I01
sS'/tags/pussyeater'
p4446
I01
sS'/tags/solomasturbation'
p4447
I01
sS'/tags/tinytits'
p4448
I01
sS'/tags/mika'
p4449
I01
sS'/tags/sharon'
p4450
I01
sS'/tags/nicole'
p4451
I01
sS'/tags/dumb'
p4452
I01
sS'/tags/loiras'
p4453
I01
sS'/tags/latinos'
p4454
I01
sS'/tags/copulating'
p4455
I01
sS'/tags/wetass'
p4456
I01
sS'/tags/gay-itsgonnahurt'
p4457
I01
sS'/tags/filmed'
p4458
I01
sS'/tags/years'
p4459
I01
sS'/tags/bubble'
p4460
I01
sS'/tags/grey'
p4461
I01
sS'/tags/vizinha'
p4462
I01
sS'/tags/domination'
p4463
I01
sS'/tags/assworship'
p4464
I01
sS'/tags/thresome'
p4465
I01
sS'/tags/face-fucking'
p4466
I01
sS'/tags/baseball'
p4467
I01
sS'/tags/gay-gothazed'
p4468
I01
sS'/tags/filmes'
p4469
I01
sS'/tags/hairypublicsexjapan'
p4470
I01
sS'/tags/loves'
p4471
I01
sS'/tags/swing'
p4472
I01
sS'/tags/jerkoff'
p4473
I01
sS'/tags/fuckfest'
p4474
I01
sS'/tags/beautiful-tits'
p4475
I01
sS'/tags/cream'
p4476
I01
sS'/tags/reversecowgirl'
p4477
I01
sS'/tags/shots'
p4478
I01
sS'/tags/mckenzie'
p4479
I01
sS'/tags/barebackholes'
p4480
I01
sS'/tags/niceass'
p4481
I01
sS'/tags/heather'
p4482
I01
sS'/tags/cumonfeet'
p4483
I01
sS'/tags/ass-licking'
p4484
I01
sS'/tags/choke'
p4485
I01
sS'/tags/barebackthathole'
p4486
I01
sS'/tags/grannies'
p4487
I01
sS'/tags/teeny'
p4488
I01
sS'/tags/strangers'
p4489
I01
sS'/tags/grannys'
p4490
I01
sS'/tags/urban'
p4491
I01
sS'/tags/face-sitting'
p4492
I01
sS'/tags/prostituta'
p4493
I01
sS'/tags/grazi'
p4494
I01
sS'/tags/prostitute'
p4495
I01
sS'/tags/black-lesbians'
p4496
I01
sS'/tags/bizarre'
p4497
I01
sS'/tags/screw'
p4498
I01
sS'/tags/senorita'
p4499
I01
sS'/tags/freckles'
p4500
I01
sS'/tags/cul'
p4501
I01
sS'/tags/sodomie'
p4502
I01
sS'/tags/monster'
p4503
I01
sS'/tags/myvivthomas'
p4504
I01
sS'/tags/gay-ohthatsbig'
p4505
I01
sS'/tags/pornstars-punishment'
p4506
I01
sS'/tags/breeding'
p4507
I01
sS'/tags/pinay'
p4508
I01
sS'/tags/lash'
p4509
I01
sS'/tags/featuring'
p4510
I01
sS'/tags/collegebf'
p4511
I01
sS'/tags/enormous'
p4512
I01
sS'/tags/kylie'
p4513
I01
sS'/tags/hot-jav'
p4514
I01
sS'/tags/gets'
p4515
I01
sS'/tags/erica'
p4516
I01
sS'/tags/getrawbreed'
p4517
I00
sS'/tags/gay-straightjerkers'
p4518
I00
sS'/tags/chilena'
p4519
I00
sS'/tags/ride'
p4520
I00
sS'/tags/wetbutts'
p4521
I00
sS'/tags/salopes'
p4522
I01
sS'/tags/tights'
p4523
I00
sS'/tags/nightclub'
p4524
I01
sS'/tags/natashas'
p4525
I00
sS'/tags/livecams'
p4526
I01
sS'/tags/opening'
p4527
I00
sS'/tags/fucking'
p4528
I00
sS'/tags/creamy'
p4529
I00
sS'/tags/giant'
p4530
I00
sS'/tags/pussy-fucking'
p4531
I00
sS'/tags/tucci'
p4532
I00
sS'/tags/cummings'
p4533
I00
sS'/tags/positions'
p4534
I00
sS'/tags/homevideo'
p4535
I00
sS'/tags/tribbing'
p4536
I00
sS'/tags/wanking'
p4537
I00
sS'/tags/morenas'
p4538
I00
sS'/tags/dahl'
p4539
I00
sS'/tags/gabriella'
p4540
I00
sS'/tags/coeds'
p4541
I00
sS'/tags/tokyo'
p4542
I00
sS'/tags/uruguay'
p4543
I00
sS'/tags/kay'
p4544
I00
sS'/tags/en'
p4545
I01
sS'/tags/hentaivideoworld'
p4546
I00
sS'/tags/discipline'
p4547
I00
sS'/tags/zebra-girls'
p4548
I00
sS'/tags/start'
p4549
I00
sS'/tags/clara'
p4550
I00
sS'/tags/kat'
p4551
I00
sS'/tags/beauties'
p4552
I00
sS'/tags/silicon'
p4553
I01
sS'/tags/kai'
p4554
I00
sS'/tags/sexmachine'
p4555
I00
sS'/tags/skirt'
p4556
I00
sS'/tags/speculum'
p4557
I00
sS'/tags/exquisite'
p4558
I00
sS'/tags/avn'
p4559
I00
sS'/tags/secretaries'
p4560
I00
sS'/tags/other'
p4561
I00
sS'/tags/schoolgirl'
p4562
I00
sS'/tags/18nippon'
p4563
I00
sS'/tags/long'
p4564
I01
sS'/tags/co-workers'
p4565
I00
sS'/tags/asian'
p4566
I00
sS'/tags/hermaphrodite'
p4567
I00
sS'/tags/tetona'
p4568
I00
sS'/tags/myhusbandisgay'
p4569
I00
sS'/tags/nalgona'
p4570
I00
sS'/tags/tattoos'
p4571
I01
sS'/tags/she-male'
p4572
I00
sS'/tags/playwithmydickmom'
p4573
I00
sS'/tags/gayporn'
p4574
I00
sS'/tags/dickgirl'
p4575
I00
sS'/tags/shaking'
p4576
I01
sS'/tags/pierce'
p4577
I01
sS'/tags/gay-gagged'
p4578
I00
sS'/tags/maletomale'
p4579
I00
sS'/tags/testicles'
p4580
I00
sS'/tags/cachorra'
p4581
I00
sS'/tags/elisabethmovies'
p4582
I00
sS'/tags/freaks'
p4583
I00
sS'/tags/namorado'
p4584
I00
sS'/tags/when'
p4585
I01
sS'/tags/cachonda'
p4586
I00
sS'/tags/hardfuck'
p4587
I00
sS'/tags/scandals'
p4588
I00
sS'/tags/meadows'
p4589
I00
sS'/tags/gay-boysfeast'
p4590
I00
sS'/tags/only'
p4591
I00
sS'/tags/nova'
p4592
I00
sS'/tags/teens'
p4593
I00
sS'/tags/bottle'
p4594
I00
sS'/tags/candy'
p4595
I00
sS'/tags/fatties'
p4596
I00
sS'/tags/cum-on-tits'
p4597
I01
sS'/tags/fill'
p4598
I00
sS'/tags/carey'
p4599
I00
sS'/tags/kelly'
p4600
I00
sS'/tags/kassin'
p4601
I00
sS'/tags/angelica'
p4602
I00
sS'/tags/stretch'
p4603
I01
sS'/tags/blone'
p4604
I00
sS'/tags/women-friendly'
p4605
I00
sS'/tags/pleasure'
p4606
I00
sS'/tags/photos'
p4607
I00
sS'/tags/farting'
p4608
I01
sS'/tags/blaze'
p4609
I00
sS'/tags/s'
p4610
I00
sS'/tags/POV'
p4611
I00
sS'/tags/orgies'
p4612
I00
sS'/tags/nacional'
p4613
I00
sS'/tags/teensexfusion'
p4614
I01
sS'/tags/your'
p4615
I00
sS'/tags/doggyfuck'
p4616
I00
sS'/tags/gay-softcore'
p4617
I00
sS'/tags/jovencitas'
p4618
I01
sS'/tags/thinking'
p4619
I01
sS'/tags/own'
p4620
I00
sS'/tags/marcela'
p4621
I00
sS'/tags/jizzedmygf'
p4622
I00
sS'/tags/morena'
p4623
I00
sS'/tags/pussy-pounding'
p4624
I00
sS'/tags/mercedez'
p4625
I00
sS'/tags/stop'
p4626
I00
sS'/tags/gay-jalifstudio'
p4627
I00
sS'/tags/supple'
p4628
I00
sS'/tags/icams'
p4629
I00
sS'/tags/evans'
p4630
I00
sS'/tags/sodomized'
p4631
I00
sS'/tags/police'
p4632
I00
sS'/tags/dildolicking'
p4633
I00
sS'/tags/shoot'
p4634
I00
sS'/tags/boykakke'
p4635
I00
sS'/tags/joy'
p4636
I00
sS'/tags/party'
p4637
I00
sS'/tags/sneakers'
p4638
I01
sS'/tags/transa'
p4639
I00
sS'/tags/fullyclothed'
p4640
I00
sS'/tags/praia'
p4641
I00
sS'/tags/adult'
p4642
I00
sS'/tags/solo-girls'
p4643
I00
sS'/tags/raven'
p4644
I00
sS'/tags/blondie'
p4645
I00
sS'/tags/gay-deansboys'
p4646
I01
sS'/tags/fantini'
p4647
I00
sS'/tags/hood'
p4648
I00
sS'/tags/choking'
p4649
I01
sS'/tags/does'
p4650
I00
sS'/tags/xxfuckerxx'
p4651
I00
sS'/tags/muscle'
p4652
I00
sS'/tags/boobsandbottoms'
p4653
I00
sS'/tags/bubblebutts'
p4654
I00
sS'/tags/madison'
p4655
I00
sS'/tags/nubile'
p4656
I00
sS'/tags/gay-teenager'
p4657
I00
sS'/tags/parties'
p4658
I00
sS'/tags/doggy-style'
p4659
I00
sS'/tags/brianna'
p4660
I00
sS'/tags/gay-ungloryhole'
p4661
I00
sS'/tags/down'
p4662
I00
sS'/tags/pelada'
p4663
I01
sS'/tags/cleavage'
p4664
I00
sS'/tags/nakeddildo'
p4665
I00
sS'/tags/sample'
p4666
I00
sS'/tags/peniano'
p4667
I00
sS'/tags/naked'
p4668
I01
sS'/tags/pride'
p4669
I00
sS'/tags/savannah'
p4670
I00
sS'/tags/oral'
p4671
I00
sS'/tags/erotico'
p4672
I00
sS'/tags/big-naturals'
p4673
I00
sS'/tags/barebacktwink'
p4674
I00
sS'/tags/ssbbw'
p4675
I00
sS'/tags/mexicana'
p4676
I00
sS'/tags/haze-him'
p4677
I00
sS'/tags/domme'
p4678
I00
sS'/tags/soles'
p4679
I00
sS'/tags/creep'
p4680
I00
sS'/tags/brutal'
p4681
I00
sS'/tags/bodystockings'
p4682
I00
sS'/tags/pussy-drilling'
p4683
I00
sS'/tags/mistress'
p4684
I00
sS'/tags/mexicano'
p4685
I00
sS'/tags/point-of-view'
p4686
I00
sS'/tags/gay-sweetandraw'
p4687
I01
sS'/tags/lesborimjob'
p4688
I00
sS'/tags/sizzling'
p4689
I00
sS'/tags/bigtitsroundass'
p4690
I00
sS'/tags/sapphic'
p4691
I01
sS'/tags/submitted'
p4692
I01
sS'/tags/exposedmum'
p4693
I00
sS'/tags/youth'
p4694
I00
sS'/tags/ficken'
p4695
I00
sS'/tags/red-head'
p4696
I00
sS'/tags/chileno'
p4697
I00
sS'/tags/gay-asian'
p4698
I00
sS'/tags/cum'
p4699
I00
sS'/tags/vega'
p4700
I00
sS'/tags/shiny'
p4701
I01
sS'/tags/hoe'
p4702
I00
sS'/tags/hakusho'
p4703
I00
sS'/tags/youtube'
p4704
I01
sS'/tags/fur'
p4705
I00
sS'/tags/tanya'
p4706
I00
sS'/tags/goo'
p4707
I00
sS'/tags/swallows'
p4708
I01
sS'/tags/nice'
p4709
I00
sS'/tags/hop'
p4710
I00
sS'/tags/hot'
p4711
I00
sS'/tags/licking'
p4712
I00
sS'/tags/cut'
p4713
I00
sS'/tags/arabe'
p4714
I00
sS'/tags/hotgirl'
p4715
I00
sS'/tags/insanely'
p4716
I00
sS'/tags/doubleblowjob'
p4717
I00
sS'/tags/erotica'
p4718
I00
sS'/tags/defloration'
p4719
I00
sS'/tags/jugs'
p4720
I00
sS'/tags/rare'
p4721
I00
sS'/tags/xoxota'
p4722
I00
sS'/tags/taking'
p4723
I01
sS'/tags/eurobabe'
p4724
I00
sS'/tags/stud'
p4725
I01
sS'/tags/reese'
p4726
I00
sS'/tags/gaystud'
p4727
I00
sS'/tags/vanilla'
p4728
I00
sS'/tags/gorgeous'
p4729
I00
sS'/tags/safada'
p4730
I00
sS'/tags/snow'
p4731
I00
sS'/tags/dirty'
p4732
I00
sS'/tags/tatoos'
p4733
I00
sS'/tags/gay-stripper'
p4734
I01
sS'/tags/naudia'
p4735
I00
sS'/tags/silk'
p4736
I00
sS'/tags/nude'
p4737
I00
sS'/tags/69'
p4738
I00
sS'/tags/yoga'
p4739
I00
sS'/tags/privat'
p4740
I00
sS'/tags/mya'
p4741
I00
sS'/tags/hitachimagicwand'
p4742
I01
sS'/tags/job'
p4743
I00
sS'/tags/collegemeat'
p4744
I00
sS'/tags/bigbreast'
p4745
I01
s.